
out/rom:     file format elf32-microblaze

Disassembly of section .vectors.reset:

00000000 <_start>:
   0:	b8080050 	brai	80	// 50 <_TEXT_START_ADDR>
Disassembly of section .vectors.sw_exception:

00000008 <_vector_sw_exception>:
   8:	b808017c 	brai	380	// 17c <_exception_handler>
Disassembly of section .vectors.interrupt:

00000010 <_vector_interrupt>:
  10:	b808018c 	brai	396	// 18c <_interrupt_handler>
Disassembly of section .vectors.hw_exception:

00000020 <_vector_hw_exception>:
  20:	b8080184 	brai	388	// 184 <_hw_exception_handler>
Disassembly of section .text:

00000050 <_start1>:
  50:	31a004c0 	addik	r13, r0, 1216	// 4c0 <_SDA_BASE_>
  54:	304003b8 	addik	r2, r0, 952	// 3b8 <_SDA2_BASE_>
  58:	30200d30 	addik	r1, r0, 3376
  5c:	b9f40014 	brlid	r15, 20	// 70 <_crtinit>
  60:	80000000 	or	r0, r0, r0
  64:	b9f40140 	brlid	r15, 320	// 1a4 <exit>
  68:	30a30000 	addik	r5, r3, 0

0000006c <_exit>:
  6c:	b8000000 	bri	0	// 6c <_exit>

00000070 <_crtinit>:
  70:	2021ffec 	addi	r1, r1, -20
  74:	f9e10000 	swi	r15, r1, 0
  78:	20c004c0 	addi	r6, r0, 1216	// 4c0 <_SDA_BASE_>
  7c:	20e004c0 	addi	r7, r0, 1216	// 4c0 <_SDA_BASE_>
  80:	06463800 	rsub	r18, r6, r7
  84:	bc720014 	blei	r18, 20		// 98
  88:	f8060000 	swi	r0, r6, 0
  8c:	20c60004 	addi	r6, r6, 4
  90:	06463800 	rsub	r18, r6, r7
  94:	bc92fff4 	bgti	r18, -12		// 88
  98:	20c004c0 	addi	r6, r0, 1216	// 4c0 <_SDA_BASE_>
  9c:	20e0053c 	addi	r7, r0, 1340	// 53c <__bss_end>
  a0:	06463800 	rsub	r18, r6, r7
  a4:	bc720014 	blei	r18, 20		// b8
  a8:	f8060000 	swi	r0, r6, 0
  ac:	20c60004 	addi	r6, r6, 4
  b0:	06463800 	rsub	r18, r6, r7
  b4:	bc92fff4 	bgti	r18, -12		// a8
  b8:	b9f400e4 	brlid	r15, 228	// 19c <_program_init>
  bc:	80000000 	or	r0, r0, r0
  c0:	20c00000 	addi	r6, r0, 0
  c4:	20e00000 	addi	r7, r0, 0
  c8:	b9f40024 	brlid	r15, 36	// ec <main>
  cc:	20a00000 	addi	r5, r0, 0
  d0:	32630000 	addik	r19, r3, 0
  d4:	b9f400c0 	brlid	r15, 192	// 194 <_program_clean>
  d8:	80000000 	or	r0, r0, r0
  dc:	c9e10000 	lw	r15, r1, r0
  e0:	30730000 	addik	r3, r19, 0
  e4:	b60f0008 	rtsd	r15, 8
  e8:	20210014 	addi	r1, r1, 20

000000ec <main>:
  ec:	e8a003b8 	lwi	r5, r0, 952	// 3b8 <_SDA2_BASE_>
  f0:	e8e003c0 	lwi	r7, r0, 960	// 3c0 <nic_wr_ptr>
  f4:	e94003c4 	lwi	r10, r0, 964	// 3c4 <nic_st_ptr>
  f8:	b00000f8 	imm	248
  fc:	312004c0 	addik	r9, r0, 1216
 100:	b0001a00 	imm	6656
 104:	31000000 	addik	r8, r0, 0
 108:	30600001 	addik	r3, r0, 1
 10c:	f8650000 	swi	r3, r5, 0
 110:	10c00000 	addk	r6, r0, r0
 114:	e8650000 	lwi	r3, r5, 0
 118:	30800002 	addik	r4, r0, 2
 11c:	30630001 	addik	r3, r3, 1
 120:	f8650000 	swi	r3, r5, 0
 124:	10642000 	addk	r3, r4, r4
 128:	f88304c0 	swi	r4, r3, 1216
 12c:	30840002 	addik	r4, r4, 2
 130:	aa44001e 	xori	r18, r4, 30
 134:	be32fff4 	bneid	r18, -12		// 128
 138:	10642000 	addk	r3, r4, r4
 13c:	f90004c0 	swi	r8, r0, 1216	// 4c0 <_SDA_BASE_>
 140:	f9270000 	swi	r9, r7, 0
 144:	bc26ffd0 	bnei	r6, -48		// 114
 148:	e86a0000 	lwi	r3, r10, 0
 14c:	a4c30001 	andi	r6, r3, 1
 150:	bc26ffc4 	bnei	r6, -60		// 114
 154:	e86a0000 	lwi	r3, r10, 0
 158:	a4c30001 	andi	r6, r3, 1
 15c:	bc26ffb8 	bnei	r6, -72		// 114
 160:	b800ffe8 	bri	-24		// 148

00000164 <delay(unsigned int)>:
 164:	b8000008 	bri	8		// 16c
 168:	80000000 	or	r0, r0, r0
 16c:	be25fffc 	bneid	r5, -4		// 168
 170:	30a5ffff 	addik	r5, r5, -1
 174:	b60f0008 	rtsd	r15, 8
 178:	80000000 	or	r0, r0, r0

0000017c <_exception_handler>:
 17c:	b6110000 	rtsd	r17, 0
 180:	80000000 	or	r0, r0, r0

00000184 <_hw_exception_handler>:
 184:	b6910000 	rted	r17, 0
 188:	80000000 	or	r0, r0, r0

0000018c <_interrupt_handler>:
 18c:	b62e0000 	rtid	r14, 0
 190:	80000000 	or	r0, r0, r0

00000194 <_program_clean>:
 194:	b60f0008 	rtsd	r15, 8
 198:	80000000 	or	r0, r0, r0

0000019c <_program_init>:
 19c:	b60f0008 	rtsd	r15, 8
 1a0:	80000000 	or	r0, r0, r0

000001a4 <exit>:
 1a4:	3021ffe0 	addik	r1, r1, -32
 1a8:	10c00000 	addk	r6, r0, r0
 1ac:	fa61001c 	swi	r19, r1, 28
 1b0:	f9e10000 	swi	r15, r1, 0
 1b4:	b9f40024 	brlid	r15, 36	// 1d8 <__call_exitprocs>
 1b8:	12650000 	addk	r19, r5, r0
 1bc:	e8a003ac 	lwi	r5, r0, 940	// 3ac <_etext>
 1c0:	e8650028 	lwi	r3, r5, 40
 1c4:	bc03000c 	beqi	r3, 12		// 1d0
 1c8:	99fc1800 	brald	r15, r3
 1cc:	80000000 	or	r0, r0, r0
 1d0:	b9f4fe9c 	brlid	r15, -356	// 6c <_exit>
 1d4:	10b30000 	addk	r5, r19, r0

000001d8 <__call_exitprocs>:
 1d8:	e86003ac 	lwi	r3, r0, 940	// 3ac <_etext>
 1dc:	3021ffc8 	addik	r1, r1, -56
 1e0:	fb410030 	swi	r26, r1, 48
 1e4:	fb610034 	swi	r27, r1, 52
 1e8:	f9e10000 	swi	r15, r1, 0
 1ec:	fa61001c 	swi	r19, r1, 28
 1f0:	fac10020 	swi	r22, r1, 32
 1f4:	fae10024 	swi	r23, r1, 36
 1f8:	fb010028 	swi	r24, r1, 40
 1fc:	fb21002c 	swi	r25, r1, 44
 200:	eb030048 	lwi	r24, r3, 72
 204:	13650000 	addk	r27, r5, r0
 208:	be180050 	beqid	r24, 80		// 258
 20c:	13460000 	addk	r26, r6, r0
 210:	e8780004 	lwi	r3, r24, 4
 214:	eb380088 	lwi	r25, r24, 136
 218:	3263ffff 	addik	r19, r3, -1
 21c:	bc53003c 	blti	r19, 60		// 258
 220:	64930402 	bslli	r4, r19, 2
 224:	30640008 	addik	r3, r4, 8
 228:	12d81800 	addk	r22, r24, r3
 22c:	be060074 	beqid	r6, 116		// 2a0
 230:	12f92000 	addk	r23, r25, r4
 234:	bc1900c0 	beqi	r25, 192		// 2f4
 238:	e8770080 	lwi	r3, r23, 128
 23c:	1643d000 	rsubk	r18, r3, r26
 240:	bc1200ec 	beqi	r18, 236		// 32c
 244:	3273ffff 	addik	r19, r19, -1
 248:	32f7fffc 	addik	r23, r23, -4
 24c:	aa53ffff 	xori	r18, r19, -1
 250:	be32ffe8 	bneid	r18, -24		// 238
 254:	32d6fffc 	addik	r22, r22, -4
 258:	e9e10000 	lwi	r15, r1, 0
 25c:	ea61001c 	lwi	r19, r1, 28
 260:	eac10020 	lwi	r22, r1, 32
 264:	eae10024 	lwi	r23, r1, 36
 268:	eb010028 	lwi	r24, r1, 40
 26c:	eb21002c 	lwi	r25, r1, 44
 270:	eb410030 	lwi	r26, r1, 48
 274:	eb610034 	lwi	r27, r1, 52
 278:	b60f0008 	rtsd	r15, 8
 27c:	30210038 	addik	r1, r1, 56
 280:	e8b70000 	lwi	r5, r23, 0
 284:	99fc3800 	brald	r15, r7
 288:	80000000 	or	r0, r0, r0
 28c:	3273ffff 	addik	r19, r19, -1
 290:	32f7fffc 	addik	r23, r23, -4
 294:	aa53ffff 	xori	r18, r19, -1
 298:	be12ffc0 	beqid	r18, -64		// 258
 29c:	32d6fffc 	addik	r22, r22, -4
 2a0:	e8780004 	lwi	r3, r24, 4
 2a4:	e8f60000 	lwi	r7, r22, 0
 2a8:	3063ffff 	addik	r3, r3, -1
 2ac:	16439800 	rsubk	r18, r3, r19
 2b0:	bc120074 	beqi	r18, 116		// 324
 2b4:	f8160000 	swi	r0, r22, 0
 2b8:	bc07ffd4 	beqi	r7, -44		// 28c
 2bc:	be190058 	beqid	r25, 88		// 314
 2c0:	30800001 	addik	r4, r0, 1
 2c4:	e8790100 	lwi	r3, r25, 256
 2c8:	44849c00 	bsll	r4, r4, r19
 2cc:	84641800 	and	r3, r4, r3
 2d0:	bc030044 	beqi	r3, 68		// 314
 2d4:	e8790104 	lwi	r3, r25, 260
 2d8:	84641800 	and	r3, r4, r3
 2dc:	bc23ffa4 	bnei	r3, -92		// 280
 2e0:	e8d70000 	lwi	r6, r23, 0
 2e4:	99fc3800 	brald	r15, r7
 2e8:	10bb0000 	addk	r5, r27, r0
 2ec:	b810ffa4 	brid	-92		// 290
 2f0:	3273ffff 	addik	r19, r19, -1
 2f4:	3273ffff 	addik	r19, r19, -1
 2f8:	aa53ffff 	xori	r18, r19, -1
 2fc:	be12ff5c 	beqid	r18, -164		// 258
 300:	3273ffff 	addik	r19, r19, -1
 304:	aa53ffff 	xori	r18, r19, -1
 308:	be32fff0 	bneid	r18, -16		// 2f8
 30c:	3273ffff 	addik	r19, r19, -1
 310:	b800ff48 	bri	-184		// 258
 314:	99fc3800 	brald	r15, r7
 318:	3273ffff 	addik	r19, r19, -1
 31c:	b810ff78 	brid	-136		// 294
 320:	32f7fffc 	addik	r23, r23, -4
 324:	fa780004 	swi	r19, r24, 4
 328:	b800ff90 	bri	-112		// 2b8
 32c:	e8780004 	lwi	r3, r24, 4
 330:	e8f60000 	lwi	r7, r22, 0
 334:	3063ffff 	addik	r3, r3, -1
 338:	16439800 	rsubk	r18, r3, r19
 33c:	bc120054 	beqi	r18, 84		// 390
 340:	f8160000 	swi	r0, r22, 0
 344:	bc07ff00 	beqi	r7, -256		// 244
 348:	bc190038 	beqi	r25, 56		// 380
 34c:	30800001 	addik	r4, r0, 1
 350:	e8790100 	lwi	r3, r25, 256
 354:	44849c00 	bsll	r4, r4, r19
 358:	84641800 	and	r3, r4, r3
 35c:	bc030024 	beqi	r3, 36		// 380
 360:	e8790104 	lwi	r3, r25, 260
 364:	84641800 	and	r3, r4, r3
 368:	bc230030 	bnei	r3, 48		// 398
 36c:	e8d70000 	lwi	r6, r23, 0
 370:	99fc3800 	brald	r15, r7
 374:	10bb0000 	addk	r5, r27, r0
 378:	b810fed0 	brid	-304		// 248
 37c:	3273ffff 	addik	r19, r19, -1
 380:	99fc3800 	brald	r15, r7
 384:	3273ffff 	addik	r19, r19, -1
 388:	b810fec4 	brid	-316		// 24c
 38c:	32f7fffc 	addik	r23, r23, -4
 390:	fa780004 	swi	r19, r24, 4
 394:	b800ffb0 	bri	-80		// 344
 398:	e8b70000 	lwi	r5, r23, 0
 39c:	99fc3800 	brald	r15, r7
 3a0:	3273ffff 	addik	r19, r19, -1
 3a4:	b810fea8 	brid	-344		// 24c
 3a8:	32f7fffc 	addik	r23, r23, -4