   1              		.file	"main.c"
   9              	.Ltext0:
  10              		.align	2
  11              		.global	io_read_gpio0_pin
  13              	io_read_gpio0_pin:
  14              	.LFB2:
  15              		.file 1 "../lib/io_driver.c"
   1:../lib/io_driver.c **** #include "io_driver.h"
   2:../lib/io_driver.c **** #include "storm_core.h"
   3:../lib/io_driver.c **** #include "storm_soc_basic.h"
   4:../lib/io_driver.c **** 
   5:../lib/io_driver.c **** // ################################################################################################
   6:../lib/io_driver.c **** // General Purpose IO (GENERAL_PURPOSE_CONTROLLER_0)
   7:../lib/io_driver.c **** // ################################################################################################
   8:../lib/io_driver.c **** 
   9:../lib/io_driver.c **** // ******************************************************************************
  10:../lib/io_driver.c **** // Read general purpose IO pin
  11:../lib/io_driver.c ****    unsigned long io_read_gpio0_pin(unsigned char pin)
  12:../lib/io_driver.c **** // ******************************************************************************
  13:../lib/io_driver.c **** {
  16              	 args = 0, pretend = 0, frame = 0
  17              		@ frame_needed = 0, uses_anonymous_args = 0
  18              		@ link register save eliminated.
  19              	.LVL0:
  20              		.loc 1 17 0
  14:../lib/io_driver.c **** //	unsigned long _cmsr = get_cmsr();
  15:../lib/io_driver.c **** //	set_cmsr(_cmsr  | (1<<CMSR_IRQ) | (1<<CMSR_FIQ));
  16:../lib/io_driver.c **** 
  17:../lib/io_driver.c **** 		unsigned long temp = GPIO0_IN & (1<<pin);
  21              	r3, #61440
  22 0000 E3E03A0F 		ldr	r1, [r3, #-4091]
  23 0004 E5131FFB 		.loc 1 13 0
  24              		and	r2, r0, #255
  25 0008 E20020FF 		.loc 1 21 0
  18:../lib/io_driver.c **** 	
  19:../lib/io_driver.c **** //	set_cmsr(_cmsr);
  20:../lib/io_driver.c **** 	return temp;
  21:../lib/io_driver.c **** }
  26              	r0, #1
  27 000c E3A00001 	.LVL1:
  28              		and	r0, r1, r0, asl r2
  29 0010 E0010210 		.loc 1 13 0
  30              		@ lr needed for prologue
  31              		.loc 1 21 0
  32              		bx	lr
  33 0014 E12FFF1E 	.LFE2:
  35              		.align	2
  36              		.global	io_read_gpio0_port
  38              	io_read_gpio0_port:
  39              	.LFB3:
  40              		.loc 1 27 0
  22:../lib/io_driver.c **** 
  23:../lib/io_driver.c **** // ******************************************************************************
  24:../lib/io_driver.c **** // Read general purpose IO port
  25:../lib/io_driver.c ****    unsigned long io_read_gpio0_port(void)
  26:../lib/io_driver.c **** // ******************************************************************************
  27:../lib/io_driver.c **** {
  41              	etend = 0, frame = 0
  42              		@ frame_needed = 0, uses_anonymous_args = 0
  43              		@ link register save eliminated.
  44              		.loc 1 31 0
  28:../lib/io_driver.c **** //	unsigned long _cmsr = get_cmsr();
  29:../lib/io_driver.c **** //	set_cmsr(_cmsr  | (1<<CMSR_IRQ) | (1<<CMSR_FIQ));
  30:../lib/io_driver.c **** 
  31:../lib/io_driver.c **** 		unsigned long temp = GPIO0_IN;
  45              		r3, #61440
  46 0018 E3E03A0F 		ldr	r0, [r3, #-4091]
  47 001c E5130FFB 	.LVL2:
  48              		.loc 1 27 0
  49              		@ lr needed for prologue
  50              	.LVL3:
  51              		.loc 1 35 0
  32:../lib/io_driver.c **** 
  33:../lib/io_driver.c **** //	set_cmsr(_cmsr);
  34:../lib/io_driver.c **** 	return temp;
  35:../lib/io_driver.c **** }
  52              	.LFE3:
  54              		.align	2
  55              		.global	io_set_gpio0_pin
  57              	io_set_gpio0_pin:
  58              	.LFB4:
  59              		.loc 1 41 0
  60              		@ args = 0, pretend = 0, frame = 0
  36:../lib/io_driver.c **** 
  37:../lib/io_driver.c **** // ******************************************************************************
  38:../lib/io_driver.c **** // Set general purpose IO port
  39:../lib/io_driver.c ****    void io_set_gpio0_pin(unsigned char pin)
  40:../lib/io_driver.c **** // ******************************************************************************
  41:../lib/io_driver.c **** {
  61              	needed = 0, uses_anonymous_args = 0
  62              		@ link register save eliminated.
  63              	.LVL4:
  64              		.loc 1 45 0
  65              		mvn	r1, #61440
  42:../lib/io_driver.c **** //	unsigned long _cmsr = get_cmsr();
  43:../lib/io_driver.c **** //	set_cmsr(_cmsr  | (1<<CMSR_IRQ) | (1<<CMSR_FIQ));
  44:../lib/io_driver.c **** 
  45:../lib/io_driver.c **** 		GPIO0_OUT = GPIO0_OUT | (1<<pin);
  66              	r3, [r1, #-4095]
  67 0024 E3E01A0F 		.loc 1 41 0
  68 0028 E5113FFF 		and	r0, r0, #255
  69              		.loc 1 45 0
  70 002c E20000FF 		mov	r2, #1
  71              		orr	r3, r3, r2, asl r0
  72 0030 E3A02001 		.loc 1 41 0
  73 0034 E1833012 		@ lr needed for prologue
  74              		.loc 1 45 0
  75              		str	r3, [r1, #-4095]
  76              		.loc 1 48 0
  77 0038 E5013FFF 		bx	lr
  46:../lib/io_driver.c **** 
  47:../lib/io_driver.c **** //	set_cmsr(_cmsr);
  48:../lib/io_driver.c **** }
  78              	e	io_set_gpio0_pin, .-io_set_gpio0_pin
  79 003c E12FFF1E 		.align	2
  80              		.global	io_clr_gpio0_pin
  82              	io_clr_gpio0_pin:
  83              	.LFB5:
  84              		.loc 1 54 0
  85              		@ args = 0, pretend = 0, frame = 0
  86              		@ frame_needed = 0, uses_anonymous_args = 0
  49:../lib/io_driver.c **** 
  50:../lib/io_driver.c **** // ******************************************************************************
  51:../lib/io_driver.c **** // Clear general purpose IO port
  52:../lib/io_driver.c ****    void io_clr_gpio0_pin(unsigned char pin)
  53:../lib/io_driver.c **** // ******************************************************************************
  54:../lib/io_driver.c **** {
  87              	egister save eliminated.
  88              	.LVL5:
  89              		and	r0, r0, #255
  90              		.loc 1 58 0
  91              		mov	r2, #1
  92 0040 E20000FF 		mov	r2, r2, asl r0
  55:../lib/io_driver.c **** //	unsigned long _cmsr = get_cmsr();
  56:../lib/io_driver.c **** //	set_cmsr(_cmsr  | (1<<CMSR_IRQ) | (1<<CMSR_FIQ));
  57:../lib/io_driver.c **** 
  58:../lib/io_driver.c **** 		GPIO0_OUT = GPIO0_OUT & ~(1<<pin);
  93              	1, #61440
  94 0044 E3A02001 		ldr	r3, [r1, #-4095]
  95 0048 E1A02012 		mvn	r2, r2
  96 004c E3E01A0F 		and	r3, r3, r2
  97 0050 E5113FFF 		.loc 1 54 0
  98 0054 E1E02002 		@ lr needed for prologue
  99 0058 E0033002 		.loc 1 58 0
 100              		str	r3, [r1, #-4095]
 101              		.loc 1 61 0
 102              		bx	lr
 103 005c E5013FFF 	.LFE5:
  59:../lib/io_driver.c **** 
  60:../lib/io_driver.c **** //	set_cmsr(_cmsr);
  61:../lib/io_driver.c **** }
 104              	lr_gpio0_pin, .-io_clr_gpio0_pin
 105 0060 E12FFF1E 		.align	2
 106              		.global	io_toggle_gpio0_pin
 108              	io_toggle_gpio0_pin:
 109              	.LFB6:
 110              		.loc 1 66 0
 111              		@ args = 0, pretend = 0, frame = 0
 112              		@ frame_needed = 0, uses_anonymous_args = 0
  62:../lib/io_driver.c **** // ******************************************************************************
  63:../lib/io_driver.c **** // Set general purpose IO port
  64:../lib/io_driver.c ****    void io_toggle_gpio0_pin(unsigned char pin)
  65:../lib/io_driver.c **** // ******************************************************************************
  66:../lib/io_driver.c **** {
 113              	egister save eliminated.
 114              	.LVL6:
 115              		.loc 1 70 0
 116              		mvn	r1, #61440
 117              		ldr	r3, [r1, #-4095]
  67:../lib/io_driver.c **** //	unsigned long _cmsr = get_cmsr();
  68:../lib/io_driver.c **** //	set_cmsr(_cmsr  | (1<<CMSR_IRQ) | (1<<CMSR_FIQ));
  69:../lib/io_driver.c **** 
  70:../lib/io_driver.c **** 		GPIO0_OUT = GPIO0_OUT ^ (1<<pin);
 118              	 1 66 0
 119 0064 E3E01A0F 		and	r0, r0, #255
 120 0068 E5113FFF 		.loc 1 70 0
 121              		mov	r2, #1
 122 006c E20000FF 		eor	r3, r3, r2, asl r0
 123              		.loc 1 66 0
 124 0070 E3A02001 		@ lr needed for prologue
 125 0074 E0233012 		.loc 1 70 0
 126              		str	r3, [r1, #-4095]
 127              		.loc 1 73 0
 128              		bx	lr
 129 0078 E5013FFF 	.LFE6:
  71:../lib/io_driver.c **** 
  72:../lib/io_driver.c **** //	set_cmsr(_cmsr);
  73:../lib/io_driver.c **** }
 130              	ggle_gpio0_pin, .-io_toggle_gpio0_pin
 131 007c E12FFF1E 		.align	2
 132              		.global	io_set_gpio0_port
 134              	io_set_gpio0_port:
 135              	.LFB7:
 136              		.loc 1 79 0
 137              		@ args = 0, pretend = 0, frame = 0
 138              		@ frame_needed = 0, uses_anonymous_args = 0
  74:../lib/io_driver.c **** 
  75:../lib/io_driver.c **** // ******************************************************************************
  76:../lib/io_driver.c **** // Clear general purpose IO port
  77:../lib/io_driver.c ****    void io_set_gpio0_port(unsigned long value)
  78:../lib/io_driver.c **** // ******************************************************************************
  79:../lib/io_driver.c **** {
 139              	egister save eliminated.
 140              	.LVL7:
 141              		.loc 1 83 0
 142              		mvn	r3, #61440
 143              		.loc 1 79 0
  80:../lib/io_driver.c **** //	unsigned long _cmsr = get_cmsr();
  81:../lib/io_driver.c **** //	set_cmsr(_cmsr  | (1<<CMSR_IRQ) | (1<<CMSR_FIQ));
  82:../lib/io_driver.c **** 
  83:../lib/io_driver.c **** 		GPIO0_OUT = value;
 144              	 needed for prologue
 145 0080 E3E03A0F 		.loc 1 83 0
 146              		str	r0, [r3, #-4095]
 147              		.loc 1 86 0
 148              		bx	lr
 149 0084 E5030FFF 	.LFE7:
  84:../lib/io_driver.c **** 
  85:../lib/io_driver.c **** //	set_cmsr(_cmsr);
  86:../lib/io_driver.c **** }
 150              		io_set_gpio0_port, .-io_set_gpio0_port
 151 0088 E12FFF1E 		.align	2
 152              		.global	io_set_pwm
 154              	io_set_pwm:
 155              	.LFB8:
 156              		.loc 1 98 0
 157              		@ args = 0, pretend = 0, frame = 0
 158              		@ frame_needed = 0, uses_anonymous_args = 0
  87:../lib/io_driver.c **** 
  88:../lib/io_driver.c **** 
  89:../lib/io_driver.c **** 
  90:../lib/io_driver.c **** // ################################################################################################
  91:../lib/io_driver.c **** // Pulse-Width-Modulation Controller
  92:../lib/io_driver.c **** // ################################################################################################
  93:../lib/io_driver.c **** 
  94:../lib/io_driver.c **** // ******************************************************************************
  95:../lib/io_driver.c **** // Set pwm value
  96:../lib/io_driver.c ****    void io_set_pwm(unsigned char port, unsigned char data)
  97:../lib/io_driver.c **** // ******************************************************************************
  98:../lib/io_driver.c **** {
 159              	nd	r0, r0, #255
 160              		.loc 1 105 0
 161              		cmp	r0, #7
 162              		.loc 1 98 0
 163 008c E20000FF 		stmfd	sp!, {r4, lr}
  99:../lib/io_driver.c **** //	unsigned long _cmsr = get_cmsr();
 100:../lib/io_driver.c **** //	set_cmsr(_cmsr  | (1<<CMSR_IRQ) | (1<<CMSR_FIQ));
 101:../lib/io_driver.c **** 
 102:../lib/io_driver.c **** 	unsigned long temp = 0;
 103:../lib/io_driver.c **** 
 104:../lib/io_driver.c **** 	// value adjustment
 105:../lib/io_driver.c **** 	if(port > 7)
 164              	0:
 165 0090 E3500007 		.loc 1 105 0
 166              		mov	ip, #0
 167 0094 E92D4010 		mvn	lr, #255
 168              		.loc 1 98 0
 169              		and	r1, r1, #255
 170 0098 E3A0C000 		.loc 1 105 0
 171 009c E3E0E0FF 		bhi	.L16
 172              		.loc 1 117 0
 173 00a0 E20110FF 		sub	r3, r0, #4
 174              		and	r3, r3, #255
 175 00a4 8A000011 		.loc 1 108 0
 106:../lib/io_driver.c **** 		port = 0;
 107:../lib/io_driver.c **** 
 108:../lib/io_driver.c **** 	if(port < 4){
 109:../lib/io_driver.c **** 		temp = PWM0_CONF0; // get working copy
 110:../lib/io_driver.c **** 		temp = temp & ~(0xFF << (port*8)); // clear old value
 111:../lib/io_driver.c **** 		temp = temp | (unsigned long)(data << (port*8)); // insert new value
 112:../lib/io_driver.c **** 		PWM0_CONF0 = temp;
 113:../lib/io_driver.c **** 	}
 114:../lib/io_driver.c **** 	else{
 115:../lib/io_driver.c **** 		port = port-4;
 116:../lib/io_driver.c **** 		temp = PWM0_CONF1; // get working copy
 117:../lib/io_driver.c **** 		temp = temp & ~(0xFF << (port*8)); // clear old value
 176              		.loc 1 117 0
 177 00a8 E2403004 		mov	lr, r3, asl #3
 178 00ac E20330FF 		.loc 1 116 0
 179              		mvn	r4, #61440
 180 00b0 E3500003 		.loc 1 108 0
 181              		mov	ip, r0, asl #3
 182 00b4 E1A0E183 		bls	.L22
 183              		.loc 1 117 0
 184 00b8 E3E04A0F 		mov	r3, #255
 185              		mov	r3, r3, asl lr
 186 00bc E1A0C180 		.loc 1 116 0
 187 00c0 9A000007 		ldr	r2, [r4, #-3979]
 188              	.LVL9:
 189 00c4 E3A030FF 		.loc 1 117 0
 190 00c8 E1A03E13 		mvn	r3, r3
 191              		and	r2, r2, r3
 192 00cc E5142F8B 	.LVL10:
 193              		.loc 1 118 0
 194              		orr	r2, r2, r1, asl lr
 195 00d0 E1E03003 	.LVL11:
 196 00d4 E0022003 		.loc 1 119 0
 197              		str	r2, [r4, #-3979]
 118:../lib/io_driver.c **** 		temp = temp | (unsigned long)(data << (port*8)); // insert new value
 198              	LVL12:
 199 00d8 E1822E11 	.L22:
 200              		.loc 1 108 0
 119:../lib/io_driver.c **** 		PWM0_CONF1 = temp;
 201              	v	r3, #255
 202 00dc E5042F8B 		mov	r3, r3, asl ip
 203 00e0 E8BD8010 		mvn	lr, r3
 204              	.L16:
 205              		.loc 1 109 0
 206              		mvn	r2, #61440
 207 00e4 E3A030FF 		ldr	r3, [r2, #-3983]
 208 00e8 E1A03C13 	.LVL13:
 209 00ec E1E0E003 		.loc 1 110 0
 210              		and	r3, r3, lr
 211              	.LVL14:
 212 00f0 E3E02A0F 		.loc 1 111 0
 213 00f4 E5123F8F 		orr	r3, r3, r1, asl ip
 214              	.LVL15:
 215              		.loc 1 112 0
 216 00f8 E003300E 		str	r3, [r2, #-3983]
 217              		ldmfd	sp!, {r4, pc}
 218              	.LFE8:
 220              		.align	2
 221              		.global	io_get_pwm
 223 0104 E8BD8010 	io_get_pwm:
 224              	.LFB9:
 225              		.loc 1 128 0
 226              		@ args = 0, pretend = 0, frame = 0
 227              		@ frame_needed = 0, uses_anonymous_args = 0
 228              		@ link register save eliminated.
 229              	.LVL16:
 230              		and	r0, r0, #255
 120:../lib/io_driver.c **** 	}
 121:../lib/io_driver.c **** //	set_cmsr(_cmsr);
 122:../lib/io_driver.c **** }
 123:../lib/io_driver.c **** 
 124:../lib/io_driver.c **** // ******************************************************************************
 125:../lib/io_driver.c **** // Set pwm value
 126:../lib/io_driver.c ****    unsigned char io_get_pwm(unsigned char port)
 127:../lib/io_driver.c **** // ******************************************************************************
 128:../lib/io_driver.c **** {
 231              	c 1 128 0
 232              		@ lr needed for prologue
 233              		.loc 1 135 0
 234              		mov	r2, #0
 235              		bhi	.L26
 236 0108 E20000FF 		.loc 1 142 0
 129:../lib/io_driver.c **** //	unsigned long _cmsr = get_cmsr();
 130:../lib/io_driver.c **** //	set_cmsr(_cmsr  | (1<<CMSR_IRQ) | (1<<CMSR_FIQ));
 131:../lib/io_driver.c **** 
 132:../lib/io_driver.c **** 	unsigned long temp = 0;
 133:../lib/io_driver.c **** 
 134:../lib/io_driver.c **** 	// value adjustment
 135:../lib/io_driver.c **** 	if(port > 7)
 237              	3, r0, #4
 238 010c E3500007 		.loc 1 138 0
 239              		cmp	r0, #3
 240              		.loc 1 142 0
 241              		and	r2, r3, #255
 242 0110 E3A02000 		.loc 1 138 0
 243 0114 8A00000A 		bls	.L31
 136:../lib/io_driver.c **** 		port = 0;
 137:../lib/io_driver.c **** 
 138:../lib/io_driver.c **** 	if(port < 4)
 139:../lib/io_driver.c **** 		temp = PWM0_CONF0; // get config register
 140:../lib/io_driver.c **** 	else{
 141:../lib/io_driver.c **** 		port = port-4;
 142:../lib/io_driver.c **** 		temp = PWM0_CONF1; // get config register
 244              	 142 0
 245 0118 E2403004 		mvn	r3, #61440
 246              		ldr	r0, [r3, #-3979]
 247 011c E3500003 	.LVL17:
 248              		mov	r2, r2, asl #3
 249 0120 E20320FF 		mov	r0, r0, lsr r2
 250              	.LVL18:
 251 0124 9A000005 		and	r0, r0, #255
 252              		.loc 1 149 0
 253 0128 E3E03A0F 		bx	lr
 254 012c E5130F8B 	.LVL19:
 255              	.L31:
 256 0130 E1A02182 		.loc 1 138 0
 257 0134 E1A00230 		mov	r2, r0, asl #3
 258              	.L26:
 259 0138 E20000FF 		.loc 1 139 0
 143:../lib/io_driver.c **** 	}
 144:../lib/io_driver.c **** 
 145:../lib/io_driver.c **** 	temp = temp >> (port*8); // only keep designated byte
 146:../lib/io_driver.c **** 
 147:../lib/io_driver.c **** //	set_cmsr(_cmsr);
 148:../lib/io_driver.c **** 	return (unsigned char)temp;
 149:../lib/io_driver.c **** }
 260              		ldr	r0, [r3, #-3983]
 261 013c E12FFF1E 	.LVL20:
 262              		.loc 1 142 0
 263              		mov	r0, r0, lsr r2
 264              	.LVL21:
 265 0140 E1A02180 		and	r0, r0, #255
 266              		.loc 1 149 0
 267              		bx	lr
 268 0144 E3E03A0F 	.LFE9:
 270              		.align	2
 271              		.global	io_uart0_read_byte
 273              	io_uart0_read_byte:
 274 0150 E20000FF 	.LFB10:
 275              		.loc 1 161 0
 276 0154 E12FFF1E 		@ args = 0, pretend = 0, frame = 0
 277              		@ frame_needed = 0, uses_anonymous_args = 0
 278              		@ link register save eliminated.
 279              		.loc 1 166 0
 280              		mvn	r2, #61440
 281              		ldr	r3, [r2, #-4067]
 282              		tst	r3, #2
 283              		mvn	r0, #0
 150:../lib/io_driver.c **** 
 151:../lib/io_driver.c **** 
 152:../lib/io_driver.c **** 
 153:../lib/io_driver.c **** // ################################################################################################
 154:../lib/io_driver.c **** // General Purpose UART "miniUART" (UART_0)
 155:../lib/io_driver.c **** // ################################################################################################
 156:../lib/io_driver.c **** 
 157:../lib/io_driver.c **** // ******************************************************************************
 158:../lib/io_driver.c **** // Read one byte via UART 0
 159:../lib/io_driver.c ****    int io_uart0_read_byte(void)
 160:../lib/io_driver.c **** // ******************************************************************************
 161:../lib/io_driver.c **** {
 284              	drne	r0, [r2, #-4071]
 285              		.loc 1 161 0
 286              		@ lr needed for prologue
 287              	.LVL23:
 162:../lib/io_driver.c **** //	unsigned long _cmsr = get_cmsr();
 163:../lib/io_driver.c **** //	set_cmsr(_cmsr  | (1<<CMSR_IRQ) | (1<<CMSR_FIQ));
 164:../lib/io_driver.c **** 
 165:../lib/io_driver.c **** 	int temp;
 166:../lib/io_driver.c **** 	if ((UART0_SREG & (1<<CUART_RXD)) != 0) // byte available?
 288              	c 1 173 0
 289 0158 E3E02A0F 		bx	lr
 290 015c E5123FE3 	.LFE10:
 292 0164 E3E00000 		.align	2
 293              		.global	io_uart0_send_byte
 167:../lib/io_driver.c **** 		temp = UART0_DATA;
 294              		io_uart0_send_byte, %function
 295 0168 15120FE7 	io_uart0_send_byte:
 296              	.LFB11:
 297              		.loc 1 179 0
 298              		@ args = 0, pretend = 0, frame = 0
 168:../lib/io_driver.c **** 	else
 169:../lib/io_driver.c **** 		temp = -1;
 170:../lib/io_driver.c **** 
 171:../lib/io_driver.c **** //	set_cmsr(_cmsr);
 172:../lib/io_driver.c **** 	return temp;
 173:../lib/io_driver.c **** }
 299              	ame_needed = 0, uses_anonymous_args = 0
 300 016c E12FFF1E 		@ link register save eliminated.
 301              	.LVL24:
 302              		@ lr needed for prologue
 303              		mvn	r2, #61440
 304              	.L39:
 305              		.loc 1 183 0
 306              		ldr	r3, [r2, #-4067]
 307              		tst	r3, #1
 174:../lib/io_driver.c **** 
 175:../lib/io_driver.c **** // ******************************************************************************
 176:../lib/io_driver.c **** // Write one byte via UART 0
 177:../lib/io_driver.c ****    int io_uart0_send_byte(int ch)
 178:../lib/io_driver.c **** // ******************************************************************************
 179:../lib/io_driver.c **** {
 308              	
 309              		.loc 1 184 0
 310              		and	r3, r0, #255
 311              		str	r3, [r2, #-4071]
 312              	.LVL25:
 313              		.loc 1 188 0
 314 0170 E3E02A0F 		bx	lr
 315              	.LFE11:
 180:../lib/io_driver.c **** //	unsigned long _cmsr = get_cmsr();
 181:../lib/io_driver.c **** //	set_cmsr(_cmsr  | (1<<CMSR_IRQ) | (1<<CMSR_FIQ));
 182:../lib/io_driver.c **** 
 183:../lib/io_driver.c **** 	while((UART0_SREG & (1<<CUART_TXB)) == 0); // uart busy?
 316              	io_uart0_send_byte, .-io_uart0_send_byte
 317 0174 E5123FE3 		.align	2
 318 0178 E3130001 		.global	io_spi0_config
 184:../lib/io_driver.c **** 	UART0_DATA = (ch & 0x000000FF);
 320              	pi0_config:
 321 0180 E20030FF 	.LFB12:
 322 0184 E5023FE7 		.loc 1 200 0
 323              		@ args = 0, pretend = 0, frame = 0
 185:../lib/io_driver.c **** 
 186:../lib/io_driver.c **** //	set_cmsr(_cmsr);
 187:../lib/io_driver.c **** 	return ch;
 188:../lib/io_driver.c **** }
 324              	rame_needed = 0, uses_anonymous_args = 0
 325 0188 E12FFF1E 		@ link register save eliminated.
 326              	.LVL26:
 327              		and	r0, r0, #255
 328              		.loc 1 206 0
 329              		cmp	r0, #1
 330              		.loc 1 209 0
 331              		orr	r2, r1, #1024
 332              		.loc 1 207 0
 189:../lib/io_driver.c **** 
 190:../lib/io_driver.c **** 
 191:../lib/io_driver.c **** 
 192:../lib/io_driver.c **** // ################################################################################################
 193:../lib/io_driver.c **** // Serial Peripherial Interface (SPI_CONTROLLER_0)
 194:../lib/io_driver.c **** // ################################################################################################
 195:../lib/io_driver.c **** 
 196:../lib/io_driver.c **** // ******************************************************************************
 197:../lib/io_driver.c **** // Configure SPI 0
 198:../lib/io_driver.c ****    void io_spi0_config(unsigned char auto_cs, unsigned long data_size)
 199:../lib/io_driver.c **** // ******************************************************************************
 200:../lib/io_driver.c **** {
 333              	, #61440
 334              		orr	r1, r1, #9216
 335              	.LVL27:
 336              		.loc 1 209 0
 337              		mvnne	r3, #61440
 338 018c E20000FF 		.loc 1 200 0
 201:../lib/io_driver.c **** //	unsigned long _cmsr = get_cmsr();
 202:../lib/io_driver.c **** //	set_cmsr(_cmsr  | (1<<CMSR_IRQ) | (1<<CMSR_FIQ));
 203:../lib/io_driver.c **** 	// devices update their serial input on a rising edge of sclk,
 204:../lib/io_driver.c **** 	// so we need to update the mosi output of the core before
 205:../lib/io_driver.c **** 	// -> at the falling edge of sclk = set SPI_TX_NEG
 206:../lib/io_driver.c **** 	if(auto_cs == 1)
 339              	needed for prologue
 340 0190 E3500001 		.loc 1 207 0
 207:../lib/io_driver.c **** 		SPI0_CONF = (1<<SPI_ACS) | (1<<SPI_TX_NEG) | data_size; // auto assert cs
 208:../lib/io_driver.c **** 	else
 209:../lib/io_driver.c **** 		SPI0_CONF = (0<<SPI_ACS) | (1<<SPI_TX_NEG) | data_size; // manual assert cs
 341              	treq	r1, [r3, #-4047]
 342 0194 E3812B01 		.loc 1 209 0
 343              		strne	r2, [r3, #-4047]
 344 0198 03E03A0F 		bx	lr
 345 019c E3811B09 	.LFE12:
 347              		.align	2
 348 01a0 13E03A0F 		.global	io_spi0_speed
 350              	io_spi0_speed:
 351              	.LFB13:
 352 01a4 05031FCF 		.loc 1 217 0
 353              		@ args = 0, pretend = 0, frame = 0
 354 01a8 15032FCF 		@ frame_needed = 0, uses_anonymous_args = 0
 355 01ac E12FFF1E 		@ link register save eliminated.
 356              	.LVL28:
 357              		.loc 1 221 0
 358              		mvn	r3, #61440
 359              		.loc 1 217 0
 360              		@ lr needed for prologue
 361              		.loc 1 221 0
 362              		str	r0, [r3, #-4043]
 210:../lib/io_driver.c **** //	set_cmsr(_cmsr);
 211:../lib/io_driver.c **** }
 212:../lib/io_driver.c **** 
 213:../lib/io_driver.c **** // ******************************************************************************
 214:../lib/io_driver.c **** // Configure SPI 0 CLK frequency -> (sys_clk/(spi_clk*2))-1
 215:../lib/io_driver.c ****    void io_spi0_speed(unsigned long clk_divider)
 216:../lib/io_driver.c **** // ******************************************************************************
 217:../lib/io_driver.c **** {
 363              	LFE13:
 365              		.align	2
 366              		.global	io_spi0_trans
 218:../lib/io_driver.c **** //	unsigned long _cmsr = get_cmsr();
 219:../lib/io_driver.c **** //	set_cmsr(_cmsr  | (1<<CMSR_IRQ) | (1<<CMSR_FIQ));
 220:../lib/io_driver.c **** 
 221:../lib/io_driver.c **** 		SPI0_PRSC = clk_divider; // (sys_clk/(spi_clk*2))-1;
 368              	i0_trans:
 369 01b0 E3E03A0F 	.LFB14:
 370              		.loc 1 230 0
 371              		@ args = 0, pretend = 0, frame = 0
 372              		@ frame_needed = 0, uses_anonymous_args = 0
 373 01b4 E5030FCB 		@ link register save eliminated.
 222:../lib/io_driver.c **** 
 223:../lib/io_driver.c **** //	set_cmsr(_cmsr);
 224:../lib/io_driver.c **** }
 374              	:
 375 01b8 E12FFF1E 		@ lr needed for prologue
 376              		mvn	r2, #61440
 377              	.L53:
 378              		.loc 1 235 0
 379              		ldr	r3, [r2, #-4047]
 380              		tst	r3, #256
 381              		bne	.L53
 382              		.loc 1 236 0
 225:../lib/io_driver.c **** 
 226:../lib/io_driver.c **** // ******************************************************************************
 227:../lib/io_driver.c **** // Sends/receives max 32 bits via SPI, CS and config must be done outside
 228:../lib/io_driver.c ****    unsigned long io_spi0_trans(unsigned long data)
 229:../lib/io_driver.c **** // ******************************************************************************
 230:../lib/io_driver.c **** {
 383              	[r2, #-4031]
 384              		.loc 1 237 0
 385              		ldr	r3, [r2, #-4047]
 386              		orr	r3, r3, #256
 387              		str	r3, [r2, #-4047]
 388              		mvn	r2, #61440
 389 01bc E3E02A0F 	.L55:
 390              		.loc 1 238 0
 231:../lib/io_driver.c **** //	unsigned long _cmsr = get_cmsr();
 232:../lib/io_driver.c **** //	set_cmsr(_cmsr  | (1<<CMSR_IRQ) | (1<<CMSR_FIQ));
 233:../lib/io_driver.c **** 
 234:../lib/io_driver.c **** 	// spi transmission
 235:../lib/io_driver.c **** 	while((SPI0_CONF & (1<<SPI_BUSY)) != 0); // wait for prev tx to finish
 391              	 [r2, #-4047]
 392 01c0 E5123FCF 		tst	r3, #256
 393 01c4 E3130C01 		bne	.L55
 394 01c8 1AFFFFFC 		.loc 1 239 0
 236:../lib/io_driver.c **** 	SPI0_DAT0 = data;
 395              		r0, [r2, #-4031]
 396 01cc E5020FBF 	.LVL30:
 237:../lib/io_driver.c **** 	SPI0_CONF = SPI0_CONF | (1<<SPI_BUSY); // start transmitter
 397              	VL31:
 398 01d0 E5123FCF 		.loc 1 243 0
 399 01d4 E3833C01 		bx	lr
 400 01d8 E5023FCF 	.LFE14:
 402              		.align	2
 238:../lib/io_driver.c **** 	while((SPI0_CONF & (1<<SPI_BUSY)) != 0); // wait for rx to finish
 403              	al	io_spi0_enable
 405 01e4 E3130C01 	io_spi0_enable:
 406 01e8 1AFFFFFC 	.LFB15:
 239:../lib/io_driver.c **** 	unsigned long temp = SPI0_DAT0;
 407              	c 1 249 0
 408 01ec E5120FBF 		@ args = 0, pretend = 0, frame = 0
 409              		@ frame_needed = 0, uses_anonymous_args = 0
 410              		@ link register save eliminated.
 240:../lib/io_driver.c **** 
 241:../lib/io_driver.c **** //	set_cmsr(_cmsr);
 242:../lib/io_driver.c **** 	return temp;
 243:../lib/io_driver.c **** }
 411              	32:
 412 01f0 E12FFF1E 		.loc 1 253 0
 413              		mvn	r1, #61440
 414              		ldr	r3, [r1, #-4039]
 415              		.loc 1 249 0
 416              		and	r0, r0, #255
 417              		.loc 1 253 0
 418              		mov	r2, #1
 419              		orr	r3, r3, r2, asl r0
 244:../lib/io_driver.c **** 
 245:../lib/io_driver.c **** // ******************************************************************************
 246:../lib/io_driver.c **** // Controls the CS of SPI0, enables a connected CS (turns it LOW)
 247:../lib/io_driver.c ****    void io_spi0_enable(unsigned char device)
 248:../lib/io_driver.c **** // ******************************************************************************
 249:../lib/io_driver.c **** {
 420              	49 0
 421              		@ lr needed for prologue
 422              		.loc 1 253 0
 423              		str	r3, [r1, #-4039]
 424              		.loc 1 256 0
 250:../lib/io_driver.c **** //	unsigned long _cmsr = get_cmsr();
 251:../lib/io_driver.c **** //	set_cmsr(_cmsr  | (1<<CMSR_IRQ) | (1<<CMSR_FIQ));
 252:../lib/io_driver.c **** 
 253:../lib/io_driver.c **** 		SPI0_SCSR = SPI0_SCSR | (1<<device);
 425              	r
 426 01f4 E3E01A0F 	.LFE15:
 428              		.align	2
 429 01fc E20000FF 		.global	io_spi0_disable
 431 0200 E3A02001 	io_spi0_disable:
 432 0204 E1833012 	.LFB16:
 433              		.loc 1 262 0
 434              		@ args = 0, pretend = 0, frame = 0
 435              		@ frame_needed = 0, uses_anonymous_args = 0
 436 0208 E5013FC7 		@ link register save eliminated.
 254:../lib/io_driver.c **** 
 255:../lib/io_driver.c **** //	set_cmsr(_cmsr);
 256:../lib/io_driver.c **** }
 437              		r0, r0, #255
 438 020c E12FFF1E 		.loc 1 266 0
 439              		mov	r2, #1
 440              		mov	r2, r2, asl r0
 441              		mvn	r1, #61440
 442              		ldr	r3, [r1, #-4039]
 443              		mvn	r2, r2
 444              		and	r3, r3, r2
 445              		.loc 1 262 0
 257:../lib/io_driver.c **** 
 258:../lib/io_driver.c **** // ******************************************************************************
 259:../lib/io_driver.c **** // Controls the CS of SPI0, disables a connected CS (turns it HIGH)
 260:../lib/io_driver.c ****    void io_spi0_disable(unsigned char device)
 261:../lib/io_driver.c **** // ******************************************************************************
 262:../lib/io_driver.c **** {
 446              	ded for prologue
 447              		.loc 1 266 0
 448              		str	r3, [r1, #-4039]
 449              		.loc 1 269 0
 450              		bx	lr
 451 0210 E20000FF 	.LFE16:
 263:../lib/io_driver.c **** //	unsigned long _cmsr = get_cmsr();
 264:../lib/io_driver.c **** //	set_cmsr(_cmsr  | (1<<CMSR_IRQ) | (1<<CMSR_FIQ));
 265:../lib/io_driver.c **** 
 266:../lib/io_driver.c **** 		SPI0_SCSR = SPI0_SCSR & ~(1<<device);
 452              		io_spi0_disable, .-io_spi0_disable
 453 0214 E3A02001 		.align	2
 454 0218 E1A02012 		.global	io_i2c0_speed
 456 0220 E5113FC7 	io_i2c0_speed:
 457 0224 E1E02002 	.LFB17:
 458 0228 E0033002 		.loc 1 282 0
 459              		@ args = 0, pretend = 0, frame = 0
 460              		@ frame_needed = 0, uses_anonymous_args = 0
 461              		@ link register save eliminated.
 462 022c E5013FC7 	.LVL34:
 267:../lib/io_driver.c **** 
 268:../lib/io_driver.c **** //	set_cmsr(_cmsr);
 269:../lib/io_driver.c **** }
 463              	 0
 464 0230 E12FFF1E 		mvn	r2, #61440
 465              		ldr	r3, [r2, #-3991]
 466              		.loc 1 287 0
 467              		mov	r1, r0, lsr #8
 468              		.loc 1 285 0
 469              		bic	r3, r3, #128
 470              		str	r3, [r2, #-3991]
 471              		.loc 1 286 0
 270:../lib/io_driver.c **** 
 271:../lib/io_driver.c **** 
 272:../lib/io_driver.c **** 
 273:../lib/io_driver.c **** 
 274:../lib/io_driver.c **** // ################################################################################################
 275:../lib/io_driver.c **** // Inter Intergrated Circuit Interface (I²C_CONTROLLER_0)
 276:../lib/io_driver.c **** // ################################################################################################
 277:../lib/io_driver.c **** 
 278:../lib/io_driver.c **** // ******************************************************************************
 279:../lib/io_driver.c **** // Configure SPI 0 CLK frequency -> (sys_clk/(5*i2c_clock)-1
 280:../lib/io_driver.c ****    void io_i2c0_speed(unsigned long clk_divider)
 281:../lib/io_driver.c **** // ******************************************************************************
 282:../lib/io_driver.c **** {
 472              	[r2, #-3999]
 473              		.loc 1 287 0
 474              		str	r1, [r2, #-3995]
 475              		.loc 1 288 0
 476              		ldr	r3, [r2, #-3991]
 283:../lib/io_driver.c **** //	unsigned long _cmsr = get_cmsr();
 284:../lib/io_driver.c **** //	set_cmsr(_cmsr  | (1<<CMSR_IRQ) | (1<<CMSR_FIQ));
 285:../lib/io_driver.c **** 		I2C0_CTRL = I2C0_CTRL & ~(1<<I2C_EN); // disable i2c core
 477              	r3, r3, #128
 478 0234 E3E02A0F 		.loc 1 282 0
 479 0238 E5123F97 		@ lr needed for prologue
 286:../lib/io_driver.c **** 		I2C0_PRLO = clk_divider;
 287:../lib/io_driver.c **** 		I2C0_PRHI = clk_divider >> 8;
 480              	oc 1 288 0
 481 023c E1A01420 		str	r3, [r2, #-3991]
 482              		.loc 1 290 0
 483 0240 E3C33080 		bx	lr
 484 0244 E5023F97 	.LFE17:
 486 0248 E5020F9F 		.align	2
 487              		.global	io_i2c0_byte_transfer
 288:../lib/io_driver.c **** 		I2C0_CTRL = I2C0_CTRL | (1<<I2C_EN); // enable i2c core
 489              	yte_transfer:
 490 0250 E5123F97 	.LFB18:
 491 0254 E3833080 		.loc 1 300 0
 492              		@ args = 4, pretend = 0, frame = 0
 493              		@ frame_needed = 0, uses_anonymous_args = 0
 494              	.LVL35:
 495 0258 E5023F97 		stmfd	sp!, {r4, r5, lr}
 289:../lib/io_driver.c **** //	set_cmsr(_cmsr);
 290:../lib/io_driver.c **** }
 496              	
 497 025c E12FFF1E 		.loc 1 306 0
 498              		mov	ip, #144
 499              		.loc 1 305 0
 500              		and	r4, r1, #254
 501              		mvn	lr, #61440
 502              	.LVL36:
 503              		.loc 1 300 0
 504              		ldrb	r5, [sp, #15]	@ zero_extendqisi2
 291:../lib/io_driver.c **** 
 292:../lib/io_driver.c **** // ******************************************************************************
 293:../lib/io_driver.c **** // Read/write byte from/to I²C slave, max 2 address bytes
 294:../lib/io_driver.c ****    int io_i2c0_byte_transfer(unsigned char rw,        // 'r' read / 'w' write cycle
 295:../lib/io_driver.c ****                              unsigned char id,        // device ID
 296:../lib/io_driver.c **** 							 unsigned long data_adr,  // data address
 297:../lib/io_driver.c **** 							 unsigned char adr_bytes, // number of adr bytes
 298:../lib/io_driver.c **** 							 unsigned char data)      // data byte
 299:../lib/io_driver.c **** // ******************************************************************************
 300:../lib/io_driver.c **** {
 505              	 r0, #255
 506              		.loc 1 305 0
 507              		str	r4, [lr, #-3987]
 508              		.loc 1 300 0
 509 0260 E92D4030 		and	r1, r1, #255
 510              		.loc 1 306 0
 301:../lib/io_driver.c **** //	unsigned long _cmsr = get_cmsr();
 302:../lib/io_driver.c **** //	set_cmsr(_cmsr  | (1<<CMSR_IRQ) | (1<<CMSR_FIQ));
 303:../lib/io_driver.c **** 
 304:../lib/io_driver.c **** 	// transfer slave identification address
 305:../lib/io_driver.c **** 	I2C0_DATA = id & 0xFE;                  // device id and write
 306:../lib/io_driver.c **** 	I2C0_CMD = (1<<I2C_STA) | (1<<I2C_WR);  // start condition and write cycle
 511              	p, [lr, #-4015]
 512 0264 E3A0C090 		.loc 1 300 0
 513              		mov	r4, r2
 514 0268 E20140FE 		and	ip, r3, #255
 515 026c E3E0EA0F 	.LVL37:
 516              	.L69:
 517              		.loc 1 307 0
 518 0270 E5DD500F 		ldr	r3, [lr, #-4015]
 519 0274 E20000FF 		tst	r3, #2
 520              		bne	.L69
 521 0278 E50E4F93 		.loc 1 308 0
 522              		ldr	r3, [lr, #-4015]
 523 027c E20110FF 		tst	r3, #128
 524              		mvnne	r0, #0
 525 0280 E50ECFAF 	.LVL38:
 526              		ldmnefd	sp!, {r4, r5, pc}
 527 0284 E1A04002 	.L80:
 528 0288 E203C0FF 		.loc 1 314 0
 529              		cmp	ip, #0
 530              		beq	.L109
 307:../lib/io_driver.c **** 	while((I2C0_STAT & (1<<I2C_TIP)) != 0); // wait for transfer to finish
 531              	3, ip, #1
 532 028c E51E3FAF 		and	ip, r3, #255
 533 0290 E3130002 		.loc 1 316 0
 534 0294 1AFFFFFC 		cmp	ip, #1
 308:../lib/io_driver.c **** 	if((I2C0_STAT & (1<<I2C_RXACK)) != 0){  // ack received?
 535              	c 1 317 0
 536 0298 E51E3FAF 		moveq	r2, r4, lsr #8
 537 029c E3130080 		mvneq	r3, #61440
 538 02a0 13E00000 		.loc 1 319 0
 539              		mvnne	r3, #61440
 540 02a4 18BD8030 		.loc 1 317 0
 541              		streq	r2, [r3, #-3987]
 309:../lib/io_driver.c **** //		set_cmsr(_cmsr);
 310:../lib/io_driver.c **** 		return -1;
 311:../lib/io_driver.c **** 	}
 312:../lib/io_driver.c **** 
 313:../lib/io_driver.c **** 	// transfer data address
 314:../lib/io_driver.c **** 	while(adr_bytes != 0){
 542              	 319 0
 543 02a8 E35C0000 		strne	r4, [r3, #-3987]
 544 02ac 0A000012 		.loc 1 320 0
 315:../lib/io_driver.c **** 		adr_bytes--;
 545              	n	r2, #61440
 546 02b0 E24C3001 		mov	r3, #16
 547 02b4 E203C0FF 		str	r3, [r2, #-4015]
 316:../lib/io_driver.c **** 		if(adr_bytes == 1)
 548              	8:
 549 02b8 E35C0001 		.loc 1 321 0
 317:../lib/io_driver.c **** 			I2C0_DATA = data_adr >> 8;          // high byte
 550              	dr	r3, [r2, #-4015]
 551 02bc 01A02424 		tst	r3, #2
 552 02c0 03E03A0F 		bne	.L78
 318:../lib/io_driver.c **** 		else
 319:../lib/io_driver.c **** 			I2C0_DATA = data_adr;               // low byte
 553              	oc 1 322 0
 554 02c4 13E03A0F 		ldr	r3, [r2, #-4015]
 555              		tst	r3, #128
 556 02c8 05032F93 		beq	.L80
 557              		mvn	r0, #1
 558 02cc 15034F93 		ldmfd	sp!, {r4, r5, pc}
 320:../lib/io_driver.c **** 		I2C0_CMD = (1<<I2C_WR);                 // write cycle
 559              	:
 560 02d0 E3E02A0F 	.L109:
 561 02d4 E3A03010 	.LVL40:
 562 02d8 E5023FAF 		.loc 1 328 0
 563              		cmp	r0, #119
 321:../lib/io_driver.c **** 		while((I2C0_STAT & (1<<I2C_TIP)) != 0); // wait for transfer to finish
 564              	.L83
 565 02dc E5123FAF 		.loc 1 330 0
 566 02e0 E3130002 		mvn	r3, #61440
 567 02e4 1AFFFFFC 		.loc 1 331 0
 322:../lib/io_driver.c **** 		if((I2C0_STAT & (1<<I2C_RXACK)) != 0){  // ack received?
 568              		r2, #80
 569 02e8 E5123FAF 		.loc 1 330 0
 570 02ec E3130080 		str	r5, [r3, #-3987]
 571 02f0 0AFFFFEC 		.loc 1 331 0
 572 02f4 E3E00001 		str	r2, [r3, #-4015]
 573 02f8 E8BD8030 		mov	r2, r3
 574              	.L85:
 575              		.loc 1 332 0
 576              		ldr	r3, [r2, #-4015]
 323:../lib/io_driver.c **** //			set_cmsr(_cmsr);
 324:../lib/io_driver.c **** 			return -2;
 325:../lib/io_driver.c **** 		}
 326:../lib/io_driver.c **** 	}
 327:../lib/io_driver.c **** 
 328:../lib/io_driver.c **** 	if(rw == 'w'){
 577              	#2
 578 02fc E3500077 		bne	.L85
 579 0300 1A00000C 		.loc 1 333 0
 329:../lib/io_driver.c **** 		// write adressed byte
 330:../lib/io_driver.c **** 		I2C0_DATA = data;                       // send data
 580              	r	r3, [r2, #-4015]
 581 0304 E3E03A0F 		ands	r0, r3, #128
 331:../lib/io_driver.c **** 		I2C0_CMD = (1<<I2C_STO) | (1<<I2C_WR);  // stop condition and write cycle
 582              	VL41:
 583 0308 E3A02050 		ldmeqfd	sp!, {r4, r5, pc}
 584              	.L87:
 585 030c E5035F93 		.loc 1 355 0
 586              		mvn	r0, #2
 587 0310 E5032FAF 		.loc 1 360 0
 588 0314 E1A02003 		ldmfd	sp!, {r4, r5, pc}
 589              	.LVL42:
 332:../lib/io_driver.c **** 		while((I2C0_STAT & (1<<I2C_TIP)) != 0); // wait for transfer to finish
 590              	loc 1 343 0
 591 0318 E5123FAF 		cmp	r0, #114
 592 031c E3130002 		mvnne	r0, #3
 593 0320 1AFFFFFC 	.LVL43:
 333:../lib/io_driver.c **** 		if((I2C0_STAT & (1<<I2C_RXACK)) != 0){  // ack received?
 594              	nefd	sp!, {r4, r5, pc}
 595 0324 E5123FAF 		.loc 1 345 0
 596 0328 E2130080 		orr	r3, r1, #1
 597              		mvn	r2, #61440
 598 032c 08BD8030 		.loc 1 346 0
 599              		mov	r1, #144
 334:../lib/io_driver.c **** //			set_cmsr(_cmsr);
 335:../lib/io_driver.c **** 			return -3;
 336:../lib/io_driver.c **** 		}
 337:../lib/io_driver.c **** 		else{
 338:../lib/io_driver.c **** //			set_cmsr(_cmsr);
 339:../lib/io_driver.c **** 			return 0;
 340:../lib/io_driver.c **** 		}
 341:../lib/io_driver.c **** 	}
 342:../lib/io_driver.c **** 
 343:../lib/io_driver.c **** 	if(rw == 'r'){
 344:../lib/io_driver.c **** 		// re-send control byte - this time with read-bit
 345:../lib/io_driver.c **** 		I2C0_DATA = id | 0x01;                  // device id and READ
 346:../lib/io_driver.c **** 		I2C0_CMD = (1<<I2C_STA) | (1<<I2C_WR);  // start condition and write cycle
 347:../lib/io_driver.c **** 		while((I2C0_STAT & (1<<I2C_TIP)) != 0); // wait for transfer to finish
 348:../lib/io_driver.c **** 		if((I2C0_STAT & (1<<I2C_RXACK)) != 0){  // ack received?
 349:../lib/io_driver.c **** //			set_cmsr(_cmsr);
 350:../lib/io_driver.c **** 			return -3;
 351:../lib/io_driver.c **** 		}
 352:../lib/io_driver.c **** 		// read adressed byte
 353:../lib/io_driver.c **** 		I2C0_CMD = (1<<I2C_STO) | (1<<I2C_RD) | (1<<I2C_ACK);
 354:../lib/io_driver.c **** 		while((I2C0_STAT & (1<<I2C_TIP)) != 0); // wait for transfer to finish
 355:../lib/io_driver.c **** 		return I2C0_DATA;
 600              	:
 601 0330 E3E00002 		.loc 1 345 0
 356:../lib/io_driver.c **** 	}
 357:../lib/io_driver.c **** 
 358:../lib/io_driver.c **** //	set_cmsr(_cmsr);
 359:../lib/io_driver.c **** 	return -4;
 360:../lib/io_driver.c **** }
 602              	tr	r3, [r2, #-3987]
 603 0334 E8BD8030 		.loc 1 346 0
 604              		str	r1, [r2, #-4015]
 605              	.L91:
 606              		.loc 1 347 0
 607 0338 E3500072 		ldr	r3, [r2, #-4015]
 608 033c 13E00003 		tst	r3, #2
 609              		bne	.L91
 610 0340 18BD8030 		.loc 1 348 0
 611              		ldr	r3, [r2, #-4015]
 612 0344 E3813001 		tst	r3, #128
 613 0348 E3E02A0F 		bne	.L87
 614              		.loc 1 353 0
 615 034c E3A01090 		mov	r3, #104
 616              		str	r3, [r2, #-4015]
 617              		mvn	r0, #61440
 618 0350 E5023F93 	.L94:
 619              		.loc 1 354 0
 620 0354 E5021FAF 		ldr	r3, [r0, #-4015]
 621              		tst	r3, #2
 622              		bne	.L94
 623 0358 E5123FAF 		.loc 1 355 0
 624 035c E3130002 		ldr	r0, [r0, #-3987]
 625 0360 1AFFFFFC 		ldmfd	sp!, {r4, r5, pc}
 626              	.LFE18:
 628 0368 E3130080 		.align	2
 629 036c 1AFFFFEF 		.global	get_syscpreg
 631 0370 E3A03068 	get_syscpreg:
 632 0374 E5023FAF 	.LFB19:
 633 0378 E3E00A0F 		.loc 1 373 0
 634              		@ args = 0, pretend = 0, frame = 0
 635              		@ frame_needed = 0, uses_anonymous_args = 0
 636 037c E5103FAF 		@ link register save eliminated.
 637 0380 E3130002 	.LVL45:
 638 0384 1AFFFFFC 		and	r0, r0, #255
 639              		@ lr needed for prologue
 640 0388 E5100F93 		.loc 1 375 0
 641 038c E8BD8030 		cmp	r0, #15
 642              		ldrls	pc, [pc, r0, asl #2]
 643              		b	.L111
 644              		.p2align 2
 645              	.L128:
 646              		.word	.L112
 647              		.word	.L113
 648              		.word	.L114
 361:../lib/io_driver.c **** 
 362:../lib/io_driver.c **** 
 363:../lib/io_driver.c **** 
 364:../lib/io_driver.c **** 
 365:../lib/io_driver.c **** // ################################################################################################
 366:../lib/io_driver.c **** // System
 367:../lib/io_driver.c **** // ################################################################################################
 368:../lib/io_driver.c **** 
 369:../lib/io_driver.c **** // ******************************************************************************
 370:../lib/io_driver.c **** // read system coprocessor register x
 371:../lib/io_driver.c ****    unsigned long get_syscpreg(unsigned char index)
 372:../lib/io_driver.c **** // ******************************************************************************
 373:../lib/io_driver.c **** {
 649              	L118
 650              		.word	.L119
 651              		.word	.L120
 652              		.word	.L121
 653              		.word	.L122
 654 0390 E20000FF 		.word	.L123
 655              		.word	.L124
 374:../lib/io_driver.c **** 	unsigned long _cp_val;
 375:../lib/io_driver.c **** 	switch(index){
 656              	.L125
 657 0394 E350000F 		.word	.L126
 658 0398 979FF100 		.word	.L127
 659 039c EA00000F 	.L111:
 660              		mov	r0, #0
 661              	.LVL46:
 662 03a0 00000460 		bx	lr
 663 03a4 00000458 	.LVL47:
 664 03a8 00000450 	.L127:
 665 03ac 00000448 		.loc 1 391 0
 666 03b0 00000440 		mrc p15,0,r0,c15,c15
 667 03b4 00000438 	.LVL48:
 668 03b8 00000430 	.LVL49:
 669 03bc 00000428 		.loc 1 395 0
 670 03c0 00000420 		bx	lr
 671 03c4 00000418 	.LVL50:
 672 03c8 00000410 	.L126:
 673 03cc 00000408 		.loc 1 390 0
 674 03d0 00000400 		mrc p15,0,r0,c14,c14
 675 03d4 000003F8 	.LVL51:
 676 03d8 000003F0 		bx	lr
 677 03dc 000003E8 	.LVL52:
 678              	.L125:
 679 03e0 E3A00000 		.loc 1 389 0
 680              		mrc p15,0,r0,c13,c13
 681 03e4 E12FFF1E 	.LVL53:
 682              		bx	lr
 683              	.LVL54:
 376:../lib/io_driver.c **** 		case ID_REG_0:   asm volatile ("mrc p15,0,%0, c0, c0" : "=r" (_cp_val) : /* no inputs */  ); brea
 377:../lib/io_driver.c **** 		case ID_REG_1:   asm volatile ("mrc p15,0,%0, c1, c1" : "=r" (_cp_val) : /* no inputs */  ); brea
 378:../lib/io_driver.c **** 		case ID_REG_2:   asm volatile ("mrc p15,0,%0, c2, c2" : "=r" (_cp_val) : /* no inputs */  ); brea
 379:../lib/io_driver.c **** 		case 3:          asm volatile ("mrc p15,0,%0, c3, c3" : "=r" (_cp_val) : /* no inputs */  ); brea
 380:../lib/io_driver.c **** 		case 4:          asm volatile ("mrc p15,0,%0, c4, c4" : "=r" (_cp_val) : /* no inputs */  ); brea
 381:../lib/io_driver.c **** 		case 5:          asm volatile ("mrc p15,0,%0, c5, c5" : "=r" (_cp_val) : /* no inputs */  ); brea
 382:../lib/io_driver.c **** 		case SYS_CTRL_0: asm volatile ("mrc p15,0,%0, c6, c6" : "=r" (_cp_val) : /* no inputs */  ); brea
 383:../lib/io_driver.c **** 		case 7:          asm volatile ("mrc p15,0,%0, c7, c7" : "=r" (_cp_val) : /* no inputs */  ); brea
 384:../lib/io_driver.c **** 		case CSTAT:      asm volatile ("mrc p15,0,%0, c8, c8" : "=r" (_cp_val) : /* no inputs */  ); brea
 385:../lib/io_driver.c **** 		case ADR_FB:     asm volatile ("mrc p15,0,%0, c9, c9" : "=r" (_cp_val) : /* no inputs */  ); brea
 386:../lib/io_driver.c **** 		case 10:         asm volatile ("mrc p15,0,%0,c10,c10" : "=r" (_cp_val) : /* no inputs */  ); brea
 387:../lib/io_driver.c **** 		case LFSR_POLY:  asm volatile ("mrc p15,0,%0,c11,c11" : "=r" (_cp_val) : /* no inputs */  ); brea
 388:../lib/io_driver.c **** 		case LFSR_DATA:  asm volatile ("mrc p15,0,%0,c12,c12" : "=r" (_cp_val) : /* no inputs */  ); brea
 389:../lib/io_driver.c **** 		case SYS_IO:     asm volatile ("mrc p15,0,%0,c13,c13" : "=r" (_cp_val) : /* no inputs */  ); brea
 390:../lib/io_driver.c **** 		case 14:         asm volatile ("mrc p15,0,%0,c14,c14" : "=r" (_cp_val) : /* no inputs */  ); brea
 391:../lib/io_driver.c **** 		case 15:         asm volatile ("mrc p15,0,%0,c15,c15" : "=r" (_cp_val) : /* no inputs */  ); brea
 684              	5,0,r0,c12,c12
 685 03e8 EE1F0F1F 	.LVL55:
 686              		bx	lr
 687              	.LVL56:
 392:../lib/io_driver.c **** 		default:         _cp_val = 0; break;
 393:../lib/io_driver.c **** 	}
 394:../lib/io_driver.c **** 	return _cp_val;
 395:../lib/io_driver.c **** }
 688              	3:
 689 03ec E12FFF1E 		.loc 1 387 0
 690              		mrc p15,0,r0,c11,c11
 691              	.LVL57:
 692              		bx	lr
 693 03f0 EE1E0F1E 	.LVL58:
 694              	.L122:
 695 03f4 E12FFF1E 		.loc 1 386 0
 696              		mrc p15,0,r0,c10,c10
 697              	.LVL59:
 698              		bx	lr
 699 03f8 EE1D0F1D 	.LVL60:
 700              	.L121:
 701 03fc E12FFF1E 		.loc 1 385 0
 702              		mrc p15,0,r0, c9, c9
 703              	.LVL61:
 704              		bx	lr
 705 0400 EE1C0F1C 	.LVL62:
 706              	.L120:
 707 0404 E12FFF1E 		.loc 1 384 0
 708              		mrc p15,0,r0, c8, c8
 709              	.LVL63:
 710              		bx	lr
 711 0408 EE1B0F1B 	.LVL64:
 712              	.L119:
 713 040c E12FFF1E 		.loc 1 383 0
 714              		mrc p15,0,r0, c7, c7
 715              	.LVL65:
 716              		bx	lr
 717 0410 EE1A0F1A 	.LVL66:
 718              	.L118:
 719 0414 E12FFF1E 		.loc 1 382 0
 720              		mrc p15,0,r0, c6, c6
 721              	.LVL67:
 722              		bx	lr
 723 0418 EE190F19 	.LVL68:
 724              	.L117:
 725 041c E12FFF1E 		.loc 1 381 0
 726              		mrc p15,0,r0, c5, c5
 727              	.LVL69:
 728              		bx	lr
 729 0420 EE180F18 	.LVL70:
 730              	.L116:
 731 0424 E12FFF1E 		.loc 1 380 0
 732              		mrc p15,0,r0, c4, c4
 733              	.LVL71:
 734              		bx	lr
 735 0428 EE170F17 	.LVL72:
 736              	.L115:
 737 042c E12FFF1E 		.loc 1 379 0
 738              		mrc p15,0,r0, c3, c3
 739              	.LVL73:
 740              		bx	lr
 741 0430 EE160F16 	.LVL74:
 742              	.L114:
 743 0434 E12FFF1E 		.loc 1 378 0
 744              		mrc p15,0,r0, c2, c2
 745              	.LVL75:
 746              		bx	lr
 747 0438 EE150F15 	.LVL76:
 748              	.L113:
 749 043c E12FFF1E 		.loc 1 377 0
 750              		mrc p15,0,r0, c1, c1
 751              	.LVL77:
 752              		bx	lr
 753 0440 EE140F14 	.LVL78:
 754              	.L112:
 755 0444 E12FFF1E 		.loc 1 376 0
 756              		mrc p15,0,r0, c0, c0
 757              	.LVL79:
 758              		bx	lr
 759 0448 EE130F13 	.LFE19:
 761 044c E12FFF1E 		.align	2
 762              		.global	set_syscpreg
 764              	set_syscpreg:
 765 0450 EE120F12 	.LFB20:
 766              		.loc 1 401 0
 767 0454 E12FFF1E 		@ args = 0, pretend = 0, frame = 0
 768              		@ frame_needed = 0, uses_anonymous_args = 0
 769              		@ link register save eliminated.
 770              	.LVL80:
 771 0458 EE110F11 		and	r1, r1, #255
 772              		.loc 1 402 0
 773 045c E12FFF1E 		sub	r1, r1, #6
 774              	.LVL81:
 775              		.loc 1 401 0
 776              		@ lr needed for prologue
 777 0460 EE100F10 		.loc 1 402 0
 778              		cmp	r1, #7
 779 0464 E12FFF1E 		ldrls	pc, [pc, r1, asl #2]
 780              		b	.L138
 781              		.p2align 2
 782              	.L137:
 783              		.word	.L133
 784              		.word	.L138
 785              		.word	.L138
 786              		.word	.L138
 396:../lib/io_driver.c **** 
 397:../lib/io_driver.c **** // ******************************************************************************
 398:../lib/io_driver.c **** // write system coprocessor register x
 399:../lib/io_driver.c ****    void set_syscpreg(unsigned long _cp_val, unsigned char index)
 400:../lib/io_driver.c **** // ******************************************************************************
 401:../lib/io_driver.c **** {
 787              	138:
 788              		bx	lr
 789              	.L133:
 790              		.loc 1 409 0
 791              		mcr p15,0,r0, c6, c6,0
 792 0468 E20110FF 		bx	lr
 402:../lib/io_driver.c **** 	switch(index){
 793              	
 794 046c E2411006 		.loc 1 414 0
 795              		mcr p15,0,r0,c11,c11,0
 796              		bx	lr
 797              	.L135:
 798              		.loc 1 415 0
 799 0470 E3510007 		mcr p15,0,r0,c12,c12,0
 800 0474 979FF101 		bx	lr
 801 0478 EA000008 	.LFE20:
 803              		.align	2
 804 047c 000004A4 		.global	io_enable_xint
 806 0484 000004A0 	io_enable_xint:
 807 0488 000004A0 	.LFB23:
 808 048c 000004A0 		.loc 1 444 0
 809 0490 000004AC 		@ args = 0, pretend = 0, frame = 0
 810 0494 000004B4 		@ frame_needed = 0, uses_anonymous_args = 0
 811 0498 0000049C 		@ link register save eliminated.
 812              		@ lr needed for prologue
 403:../lib/io_driver.c **** //		case ID_REG_0:   asm volatile ("mcr p15,0,%0, c0, c0,0" : /* no outputs */ : "r" (_cp_val)); br
 404:../lib/io_driver.c **** //		case ID_REG_1:   asm volatile ("mcr p15,0,%0, c1, c1,0" : /* no outputs */ : "r" (_cp_val)); br
 405:../lib/io_driver.c **** //		case ID_REG_2:   asm volatile ("mcr p15,0,%0, c2, c2,0" : /* no outputs */ : "r" (_cp_val)); br
 406:../lib/io_driver.c **** //		case 3:          asm volatile ("mcr p15,0,%0, c3, c3,0" : /* no outputs */ : "r" (_cp_val)); br
 407:../lib/io_driver.c **** //		case 4:          asm volatile ("mcr p15,0,%0, c4, c4,0" : /* no outputs */ : "r" (_cp_val)); br
 408:../lib/io_driver.c **** //		case 5:          asm volatile ("mcr p15,0,%0, c5, c5,0" : /* no outputs */ : "r" (_cp_val)); br
 409:../lib/io_driver.c **** 		case SYS_CTRL_0: asm volatile ("mcr p15,0,%0, c6, c6,0" : /* no outputs */ : "r" (_cp_val)); brea
 410:../lib/io_driver.c **** //		case 7:          asm volatile ("mcr p15,0,%0, c7, c7,0" : /* no outputs */ : "r" (_cp_val)); br
 411:../lib/io_driver.c **** //		case CSTAT:      asm volatile ("mcr p15,0,%0, c8, c8,0" : /* no outputs */ : "r" (_cp_val)); br
 412:../lib/io_driver.c **** //		case ADR_FB:     asm volatile ("mcr p15,0,%0, c9, c9,0" : /* no outputs */ : "r" (_cp_val)); br
 413:../lib/io_driver.c **** //		case 10:         asm volatile ("mcr p15,0,%0,c10,c10,0" : /* no outputs */ : "r" (_cp_val)); br
 414:../lib/io_driver.c **** 		case LFSR_POLY:  asm volatile ("mcr p15,0,%0,c11,c11,0" : /* no outputs */ : "r" (_cp_val)); brea
 415:../lib/io_driver.c **** 		case LFSR_DATA:  asm volatile ("mcr p15,0,%0,c12,c12,0" : /* no outputs */ : "r" (_cp_val)); brea
 416:../lib/io_driver.c **** 		case SYS_IO:     asm volatile ("mcr p15,0,%0,c13,c13,0" : /* no outputs */ : "r" (_cp_val)); brea
 813              	 1 428 0
 814 049c EE0D0F1D 		 mrs r3, cpsr
 815              	.LVL82:
 816 04a0 E12FFF1E 	.LBE7:
 817              	.LBE6:
 818              	.LBB8:
 819 04a4 EE060F16 	.LBB9:
 820 04a8 E12FFF1E 		.loc 1 437 0
 821              		bic	r3, r3, #192
 822              	.LVL83:
 823 04ac EE0B0F1B 		 msr cpsr, r3
 824 04b0 E12FFF1E 	.LBE9:
 825              	.LBE8:
 826              		.loc 1 448 0
 827 04b4 EE0C0F1C 		bx	lr
 828 04b8 E12FFF1E 	.LFE23:
 830              		.align	2
 831              		.global	io_disable_xint
 833              	io_disable_xint:
 834              	.LFB24:
 835              		.loc 1 454 0
 417:../lib/io_driver.c **** //		case 14:         asm volatile ("mcr p15,0,%0,c14,c14,0" : /* no outputs */ : "r" (_cp_val)); br
 418:../lib/io_driver.c **** //		case 15:         asm volatile ("mcr p15,0,%0,c15,c15,0" : /* no outputs */ : "r" (_cp_val)); br
 419:../lib/io_driver.c **** 		default:         break;
 420:../lib/io_driver.c **** 	}
 421:../lib/io_driver.c **** }
 422:../lib/io_driver.c **** // ******************************************************************************
 423:../lib/io_driver.c **** // read CMSR value
 424:../lib/io_driver.c ****    static inline unsigned long get_cmsr(void)
 425:../lib/io_driver.c **** // ******************************************************************************
 426:../lib/io_driver.c **** {
 427:../lib/io_driver.c **** 	unsigned long _cmsr;
 428:../lib/io_driver.c **** 	asm volatile (" mrs %0, cpsr" : "=r" (_cmsr) : /* no inputs */  );
 429:../lib/io_driver.c **** 	return _cmsr;
 430:../lib/io_driver.c **** }
 431:../lib/io_driver.c **** 
 432:../lib/io_driver.c **** // ******************************************************************************
 433:../lib/io_driver.c **** // write CMSR value
 434:../lib/io_driver.c ****    static inline void set_cmsr(unsigned long _cmsr)
 435:../lib/io_driver.c **** // ******************************************************************************
 436:../lib/io_driver.c **** {
 437:../lib/io_driver.c **** 	asm volatile (" msr cpsr, %0" : /* no outputs */ : "r" (_cmsr)  );
 438:../lib/io_driver.c **** }
 439:../lib/io_driver.c **** 
 440:../lib/io_driver.c **** // ******************************************************************************
 441:../lib/io_driver.c **** // Enable all external INTs
 442:../lib/io_driver.c ****    void io_enable_xint(void)
 443:../lib/io_driver.c **** // ******************************************************************************
 444:../lib/io_driver.c **** {
 836              	0, frame = 0
 837              		@ frame_needed = 0, uses_anonymous_args = 0
 838              		@ link register save eliminated.
 839              		@ lr needed for prologue
 840              	.LBB14:
 841              	.LBB15:
 842              		.loc 1 428 0
 843              		 mrs r3, cpsr
 844 04bc E10F3000 	.LVL84:
 845              	.LBE15:
 846              	.LBE14:
 847              	.LBB16:
 848              	.LBB17:
 849              		.loc 1 437 0
 850              		orr	r3, r3, #192
 851 04c0 E3C330C0 	.LVL85:
 852              		 msr cpsr, r3
 853 04c4 E129F003 	.LBE17:
 854              	.LBE16:
 855              		.loc 1 458 0
 445:../lib/io_driver.c **** 	unsigned long _cmsr = get_cmsr();
 446:../lib/io_driver.c **** 	_cmsr = _cmsr & ~(1<<CMSR_FIQ) &~(1<<CMSR_IRQ);
 447:../lib/io_driver.c **** 	set_cmsr(_cmsr);
 448:../lib/io_driver.c **** }
 856              	e	io_disable_xint, .-io_disable_xint
 857 04c8 E12FFF1E 		.align	2
 858              		.global	long_to_hex_string
 860              	long_to_hex_string:
 861              	.LFB25:
 862              		.file 2 "../lib/utilities.c"
 863              		.loc 2 9 0
 864              		@ args = 0, pretend = 0, frame = 0
 449:../lib/io_driver.c **** 
 450:../lib/io_driver.c **** // ******************************************************************************
 451:../lib/io_driver.c **** // Disable all global IBTs
 452:../lib/io_driver.c ****    void io_disable_xint(void)
 453:../lib/io_driver.c **** // ******************************************************************************
 454:../lib/io_driver.c **** {
 865              	needed = 0, uses_anonymous_args = 0
 866              	.LVL86:
 867              		stmfd	sp!, {r4, lr}
 868              	.LCFI2:
 869              		.loc 2 9 0
 870              		and	r4, r2, #255
 871              		.loc 2 14 0
 872              		cmp	r4, #8
 873 04cc E10F3000 		movhi	r4, #8
 874              		bhi	.L146
 875              	.LVL87:
 876              		.loc 2 16 0
 877              		cmp	r4, #0
 878              		.loc 2 39 0
 879              		moveq	r4, #1
 880 04d0 E38330C0 	.L146:
 881              		mov	r2, r1
 882 04d4 E129F003 	.LVL88:
 883              		mov	lr, r4
 884              	.LVL89:
 455:../lib/io_driver.c **** 	unsigned long _cmsr = get_cmsr();
 456:../lib/io_driver.c **** 	_cmsr = _cmsr | (1<<CMSR_FIQ) | (1<<CMSR_IRQ);
 457:../lib/io_driver.c **** 	set_cmsr(_cmsr);
 458:../lib/io_driver.c **** }
 885              		mov	r3, lr, asl #2
 886 04d8 E12FFF1E 		.loc 2 21 0
 887              		cmp	lr, #1
 888              		.loc 2 22 0
 889              		sub	r3, r3, #4
 890              		.loc 2 21 0
 891              		mov	ip, r0
 892              	.LVL90:
 893              		.loc 2 22 0
 894              		movhi	ip, r0, lsr r3
   1:../lib/utilities.c **** #include "utilities.h"
   2:../lib/utilities.c **** 
   3:../lib/utilities.c **** // ############################################################################################
   4:../lib/utilities.c **** // Convert 4/8/12/16/20/24/28/32 bit hexadecimal value to ASCII string
   5:../lib/utilities.c ****    void long_to_hex_string(unsigned long data,    // max 32 bit data word
   6:../lib/utilities.c ****                            unsigned char *buffer, // buffer to store the string
   7:../lib/utilities.c **** 						   unsigned char numbers) // number of places, max 8
   8:../lib/utilities.c **** // ############################################################################################
   9:../lib/utilities.c **** {
 895              	 0
 896              		sub	r3, lr, #1
 897              		.loc 2 25 0
 898              		and	ip, ip, #15
 899 04dc E92D4010 	.LVL91:
 900              		.loc 2 26 0
 901              		and	lr, r3, #255
 902 04e0 E20240FF 		.loc 2 29 0
  10:../lib/utilities.c **** 	unsigned char temp_char = 0;
  11:../lib/utilities.c **** 	unsigned long temp_data = 0;
  12:../lib/utilities.c **** 
  13:../lib/utilities.c **** 	// fit into range
  14:../lib/utilities.c **** 	if(numbers > 8)
 903              	 #9
 904 04e4 E3540008 		.loc 2 30 0
 905 04e8 83A04008 		add	r3, ip, #48
 906 04ec 8A000001 	.LVL92:
 907              		.loc 2 32 0
  15:../lib/utilities.c **** 		numbers = 8;
  16:../lib/utilities.c **** 	if(numbers < 1)
 908              	i	r3, ip, #55
 909 04f0 E3540000 		.loc 2 19 0
  17:../lib/utilities.c **** 		numbers = 1;
  18:../lib/utilities.c **** 
  19:../lib/utilities.c **** 	while(numbers > 0){
  20:../lib/utilities.c **** 		// isolate one 4-bit value
  21:../lib/utilities.c **** 		if(numbers > 1)
  22:../lib/utilities.c **** 			temp_data = data >> ((numbers-1)*4);
  23:../lib/utilities.c **** 		else
  24:../lib/utilities.c **** 			temp_data = data;
  25:../lib/utilities.c **** 		temp_data = temp_data & 0x0000000F;
  26:../lib/utilities.c **** 		numbers--;
  27:../lib/utilities.c **** 
  28:../lib/utilities.c **** 		// convert 4-bit value temp_data to char temp_char
  29:../lib/utilities.c **** 		if(temp_data < 10)
  30:../lib/utilities.c **** 			temp_char = '0' + temp_data;
  31:../lib/utilities.c **** 		else
  32:../lib/utilities.c **** 			temp_char = 'A' + temp_data - 10;
  33:../lib/utilities.c **** 
  34:../lib/utilities.c **** 		// save character
  35:../lib/utilities.c **** 		*buffer++ = temp_char;
  36:../lib/utilities.c **** 	}
  37:../lib/utilities.c **** 
  38:../lib/utilities.c **** 	*buffer++ = 0; // terminate string
  39:../lib/utilities.c **** }
 910              	mp	lr, #0
 911 04f4 03A04001 		.loc 2 35 0
 912              		strb	r3, [r2], #1
 913 04f8 E1A02001 		.loc 2 19 0
 914              		bne	.L148
 915 04fc E1A0E004 		.loc 2 38 0
 916              		sub	r3, r4, #1
 917              	.LVL93:
 918              		and	r3, r3, #255
 919 0500 E1A0310E 		add	r3, r1, r3
 920              		strb	lr, [r3, #1]
 921 0504 E35E0001 		.loc 2 39 0
 922              		ldmfd	sp!, {r4, pc}
 923 0508 E2433004 	.LFE25:
 925 050c E1A0C000 		.align	2
 926              		.global	get_adc
 928 0510 81A0C330 	get_adc:
 929              	.LFB26:
 930 0514 E24E3001 		.loc 2 45 0
 931              		@ args = 0, pretend = 0, frame = 0
 932 0518 E20CC00F 		@ frame_needed = 0, uses_anonymous_args = 0
 933              	.LVL94:
 934              		stmfd	sp!, {r4, lr}
 935 051c E203E0FF 	.LCFI3:
 936              		.loc 2 45 0
 937 0520 E35C0009 		mov	r4, r0
 938              		.loc 2 48 0
 939 0524 E28C3030 		cmp	r4, #7
 940              		.loc 2 52 0
 941              		mov	r1, #16
 942 0528 828C3037 		mov	r0, #1
 943              	.LVL95:
 944 052c E35E0000 		.loc 2 48 0
 945              		bls	.L165
 946 0530 E4C23001 		.loc 2 58 0
 947              		mov	r0, #0
 948 0534 1AFFFFF1 		ldmfd	sp!, {r4, pc}
 949              	.L165:
 950 0538 E2443001 		.loc 2 52 0
 951              		bl	io_spi0_config
 952 053c E20330FF 		.loc 2 53 0
 953 0540 E0813003 		mov	r0, #6
 954 0544 E5C3E001 		bl	io_spi0_enable
 955              		.loc 2 56 0
 956 0548 E8BD8010 		mov	r0, #0
 957              		bl	io_spi0_trans
 958              		.loc 2 57 0
 959              		mov	r0, r4, asl #11
 960              		.loc 2 58 0
 961              		ldmfd	sp!, {r4, lr}
 962              		.loc 2 57 0
 963              		b	io_spi0_trans
  40:../lib/utilities.c **** 
  41:../lib/utilities.c **** // ############################################################################################
  42:../lib/utilities.c **** // read external ADC value
  43:../lib/utilities.c ****    unsigned int get_adc(int adc_index) // adc 0..7
  44:../lib/utilities.c **** // ############################################################################################
  45:../lib/utilities.c **** {
 964              	elay
 966              	delay:
 967              	.LFB27:
 968 054c E92D4010 		.loc 2 64 0
 969              		@ args = 0, pretend = 0, frame = 0
 970              		@ frame_needed = 0, uses_anonymous_args = 0
 971 0550 E1A04000 		@ link register save eliminated.
  46:../lib/utilities.c **** 	unsigned long temp;
  47:../lib/utilities.c **** 
  48:../lib/utilities.c **** 	if ((adc_index < 0) || (adc_index > 7))
 972              		.loc 2 65 0
 973 0554 E3540007 		rsb	r3, r0, r0, asl #5
  49:../lib/utilities.c **** 		return 0;
  50:../lib/utilities.c **** 
  51:../lib/utilities.c **** 	// config spi
  52:../lib/utilities.c **** 	io_spi0_config(1,16); // auto assert cs, 16 bit transfer
 974              	dd	r0, r0, r3, asl #2
 975 0558 E3A01010 	.LVL97:
 976 055c E3A00001 		add	r0, r0, r0, asl #2
 977              		mov	r0, r0, asl #4
 978              	.LVL98:
 979 0560 9A000001 		.loc 2 66 0
  53:../lib/utilities.c **** 	io_spi0_enable(adc_cs);
  54:../lib/utilities.c **** 
  55:../lib/utilities.c **** 	temp = adc_index * 2048;
  56:../lib/utilities.c **** 	io_spi0_trans(0); // dummy read
  57:../lib/utilities.c **** 	return (unsigned int)io_spi0_trans(temp);
  58:../lib/utilities.c **** }
 980              	0, #0
 981 0564 E3A00000 		.loc 2 64 0
 982 0568 E8BD8010 		@ lr needed for prologue
 983              		.loc 2 66 0
 984              		bxle	lr
 985 056c EBFFFFFE 	.L170:
 986              		.loc 2 67 0
 987 0570 E3A00006 		NOP
 988 0574 EBFFFFFE 		.loc 2 66 0
 989              		subs	r0, r0, #1
 990 0578 E3A00000 		bne	.L170
 991 057c EBFFFFFE 		bx	lr
 992              	.LFE27:
 994              		.align	2
 995 0584 E8BD4010 		.global	string_cmpc
 997 0588 EAFFFFFE 	string_cmpc:
 998              	.LFB28:
 999              		.loc 2 76 0
 1000              		@ args = 0, pretend = 0, frame = 0
 1001              		@ frame_needed = 0, uses_anonymous_args = 0
 1002              		@ link register save eliminated.
 1003              	.LVL99:
 1004              		.loc 2 77 0
  59:../lib/utilities.c **** 
  60:../lib/utilities.c **** // ############################################################################################
  61:../lib/utilities.c **** // simple delay routine
  62:../lib/utilities.c ****    void delay(int time) // waits time*10000 clock ticks
  63:../lib/utilities.c **** // ############################################################################################
  64:../lib/utilities.c **** {
 1005              	2 76 0
 1006              		@ lr needed for prologue
 1007              		.loc 2 77 0
 1008              		beq	.L173
 1009              	.LVL100:
  65:../lib/utilities.c **** 	time = time*2500*4;
 1010              	 2 78 0
 1011 058c E0603280 		ldrb	r2, [r0, #0]	@ zero_extendqisi2
 1012 0590 E0800103 		ldrb	r3, [r1, #0]	@ zero_extendqisi2
 1013              		cmp	r2, r3
 1014 0594 E0800100 		beq	.L177
 1015 0598 E1A00200 		b	.L175
 1016              	.L178:
  66:../lib/utilities.c **** 	while(time > 0){
 1017              	:
 1018 059c E3500000 		ldrb	r2, [r0, #1]!	@ zero_extendqisi2
 1019              	.LVL102:
 1020              		ldrb	r3, [r1, #1]!	@ zero_extendqisi2
 1021              		cmp	r2, r3
 1022 05a0 D12FFF1E 		bne	.L175
 1023              	.LVL103:
  67:../lib/utilities.c **** 		asm volatile ("NOP");
 1024              		.loc 2 80 0
 1025 05a4 E1A00000 		sub	r3, ip, #1
 1026              		.loc 2 77 0
 1027 05a8 E2500001 		ands	ip, r3, #255
 1028 05ac 1AFFFFFC 		bne	.L178
 1029 05b0 E12FFF1E 	.LVL104:
 1030              	.L173:
 1031              		mov	r0, #1
 1032              	.LVL105:
 1033              		.loc 2 83 0
 1034              		bx	lr
 1035              	.LVL106:
 1036              	.L175:
  68:../lib/utilities.c **** 		time--;
  69:../lib/utilities.c **** 	}
  70:../lib/utilities.c **** }
  71:../lib/utilities.c **** 
  72:../lib/utilities.c **** // ############################################################################################
  73:../lib/utilities.c **** // String compare, buffered string with immediate const char string
  74:../lib/utilities.c ****    unsigned char string_cmpc(unsigned char *string1, const char *string2, unsigned char length)
  75:../lib/utilities.c **** // ############################################################################################
  76:../lib/utilities.c **** {
 1037              		mov	r0, #0
 1038              	.LVL107:
 1039              		bx	lr
 1040              	.LFE28:
  77:../lib/utilities.c **** 	while(length != 0){
 1042              	gn	2
 1043 05b4 E212C0FF 		.global	uart0_printf
 1045              	uart0_printf:
 1046              	.LFB29:
 1047 05b8 0A00000B 		.file 3 "../lib/uart.c"
 1048              		.loc 3 7 0
  78:../lib/utilities.c **** 		if(*string1++ != (unsigned char)*string2++)
 1049              	 = 0, pretend = 0, frame = 0
 1050 05bc E5D02000 		@ frame_needed = 0, uses_anonymous_args = 0
 1051 05c0 E5D13000 	.LVL108:
 1052 05c4 E1520003 		stmfd	sp!, {r4, lr}
 1053 05c8 0A000004 	.LCFI4:
 1054 05cc EA000008 		.loc 3 7 0
 1055              		mov	r4, r0
 1056              		.loc 3 10 0
 1057 05d0 E5F02001 		ldrb	r0, [r0, #0]	@ zero_extendqisi2
 1058              	.LVL109:
 1059 05d4 E5F13001 		cmp	r0, #0
 1060 05d8 E1520003 		bne	.L186
 1061 05dc 1A000004 		b	.L182
 1062              	.LVL110:
 1063              	.L188:
  79:../lib/utilities.c **** 			return(0); // missmatch
  80:../lib/utilities.c **** 		length--;
 1064              	#1]!	@ zero_extendqisi2
 1065 05e0 E24C3001 	.LVL111:
 1066              		cmp	r0, #0
 1067 05e4 E213C0FF 		beq	.L182
 1068 05e8 1AFFFFF8 	.L186:
 1069              		.loc 3 11 0
 1070              		bl	io_uart0_send_byte
 1071 05ec E3A00001 	.LVL112:
 1072              		cmp	r0, #0
  81:../lib/utilities.c **** 	}
  82:../lib/utilities.c **** 	return(1); // match
  83:../lib/utilities.c **** }
 1073              	8
 1074 05f0 E12FFF1E 	.LVL113:
 1075              	.L182:
 1076              		.loc 3 16 0
 1077              		mov	r0, r4
 1078 05f4 E3A00000 	.LVL114:
 1079              		ldmfd	sp!, {r4, pc}
 1080 05f8 E12FFF1E 	.LFE29:
 1082              		.align	2
 1083              		.global	uart0_scanf
 1085              	uart0_scanf:
 1086              	.LFB30:
 1087              		.loc 3 22 0
 1088              		@ args = 0, pretend = 0, frame = 0
   1:../lib/uart.c **** #include "uart.h"
   2:../lib/uart.c **** 
   3:../lib/uart.c **** // ############################################################################################
   4:../lib/uart.c **** // Print text string via UART 0
   5:../lib/uart.c ****    const char *uart0_printf(const char *string)
   6:../lib/uart.c **** // ############################################################################################
   7:../lib/uart.c **** {
 1089              	= 0, uses_anonymous_args = 0
 1090              	.LVL115:
 1091              		stmfd	sp!, {r4, r5, r6, lr}
 1092              	.LCFI5:
 1093 05fc E92D4010 		.loc 3 25 0
 1094              		subs	r4, r1, #0
 1095              		.loc 3 22 0
 1096 0600 E1A04000 		mov	r5, r0
   8:../lib/uart.c **** 	char ch;
   9:../lib/uart.c **** 
  10:../lib/uart.c **** 	while ((ch = *string)){
 1097              	 r2, #255
 1098 0604 E5D00000 		.loc 3 25 0
 1099              		ldmlefd	sp!, {r4, r5, r6, pc}
 1100 0608 E3500000 	.LVL116:
 1101 060c 1A000003 	.L197:
 1102 0610 EA000005 		.loc 3 26 0
 1103              		bl	io_uart0_read_byte
 1104              	.LVL117:
 1105 0614 E5F40001 	.LVL118:
 1106              		.loc 3 27 0
 1107 0618 E3500000 		cmn	r0, #1
 1108 061c 0A000002 		.loc 3 28 0
 1109              		and	r3, r0, #255
  11:../lib/uart.c **** 		if (io_uart0_send_byte(ch)<=0)
 1110              	c 3 27 0
 1111 0620 EBFFFFFE 		beq	.L192
 1112              		.loc 3 30 0
 1113 0624 E3500000 		cmp	r6, #1
 1114 0628 CAFFFFF9 	.LVL120:
 1115              		.loc 3 29 0
 1116              		strb	r3, [r5, #0]
  12:../lib/uart.c **** 			break;
  13:../lib/uart.c **** 		string++;
  14:../lib/uart.c **** 	}
  15:../lib/uart.c **** 	return string;
  16:../lib/uart.c **** }
 1117              	:
 1118 062c E1A00004 		.loc 3 31 0
 1119              		mov	r0, r3
 1120 0630 E8BD8010 	.LVL122:
 1121              		.loc 3 29 0
 1122              		add	r5, r5, #1
 1123              		.loc 3 30 0
 1124              		beq	.L199
 1125              	.LVL123:
 1126              	.L194:
 1127              		.loc 3 32 0
  17:../lib/uart.c **** 
  18:../lib/uart.c **** // ############################################################################################
  19:../lib/uart.c **** // Read text string via UART 0
  20:../lib/uart.c ****    void uart0_scanf(unsigned char *buffer, int length, unsigned char en_echo)
  21:../lib/uart.c **** // ############################################################################################
  22:../lib/uart.c **** {
 1128              	, #1
 1129              	.LVL124:
 1130              	.L192:
 1131              		.loc 3 25 0
 1132 0634 E92D4070 		cmp	r4, #0
 1133              		bgt	.L197
  23:../lib/uart.c **** 	int temp = 0;
  24:../lib/uart.c **** 
  25:../lib/uart.c **** 	while(length > 0){
 1134              		sp!, {r4, r5, r6, pc}
 1135 0638 E2514000 	.LVL125:
 1136              	.L199:
 1137 063c E1A05000 		.loc 3 31 0
 1138 0640 E20260FF 		bl	io_uart0_send_byte
 1139              	.LVL126:
 1140 0644 D8BD8070 		b	.L194
 1141              	.LFE30:
  26:../lib/uart.c **** 		temp = io_uart0_read_byte();
 1143              	
 1144 0648 EBFFFFFE 		.global	uart0_print_buffer
 1146              	uart0_print_buffer:
  27:../lib/uart.c **** 		if(temp != -1){
 1147              	B31:
 1148 064c E3700001 		.loc 3 41 0
  28:../lib/uart.c **** 			temp = (unsigned char)(temp & 0x000000FF);
 1149              	 args = 0, pretend = 0, frame = 0
 1150 0650 E20030FF 		@ frame_needed = 0, uses_anonymous_args = 0
 1151              	.LVL127:
 1152              		stmfd	sp!, {r4, r5, lr}
 1153 0654 0A000005 	.LCFI6:
  29:../lib/uart.c **** 			*buffer++ = temp;
  30:../lib/uart.c **** 			if(en_echo == 1)
 1154              	 3 43 0
 1155 0658 E3560001 		subs	r4, r1, #0
 1156              		.loc 3 41 0
 1157              		mov	r5, r0
 1158 065c E5C53000 		.loc 3 43 0
 1159              		ldmlefd	sp!, {r4, r5, pc}
  31:../lib/uart.c **** 				io_uart0_send_byte(temp); // echo
 1160              	8:
 1161 0660 E1A00003 	.L204:
 1162              		.loc 3 45 0
 1163              		ldrb	r0, [r5], #1	@ zero_extendqisi2
 1164 0664 E2855001 	.LVL129:
 1165              		bl	io_uart0_send_byte
 1166 0668 0A000003 	.LVL130:
 1167              		.loc 3 43 0
 1168              		subs	r4, r4, #1
  32:../lib/uart.c **** 			length--;
 1169              	4
 1170 066c E2444001 		ldmfd	sp!, {r4, r5, pc}
 1171              	.LFE31:
 1173              		.align	2
 1174 0670 E3540000 		.global	timer0_isr
 1176 0678 E8BD8070 	timer0_isr:
 1177              	.LFB32:
 1178              		.file 4 "main.c"
 1179              		.loc 4 18 0
 1180 067c EBFFFFFE 		@ Interrupt Service Routine.
 1181              		@ args = 0, pretend = 0, frame = 0
 1182 0680 EAFFFFF9 		@ frame_needed = 0, uses_anonymous_args = 0
 1183              		sub	lr, lr, #4
 1184              		stmfd	sp!, {r0, r1, r2, r3, ip, lr}
 1185              	.LCFI7:
 1186              		.loc 4 20 0
 1187              		mov	r0, #13
 1188              		bl	get_syscpreg
 1189              		mov	r1, #13
  33:../lib/uart.c **** 		}
  34:../lib/uart.c **** 	}
  35:../lib/uart.c **** }
  36:../lib/uart.c **** 
  37:../lib/uart.c **** // ############################################################################################
  38:../lib/uart.c **** // Print character buffer via UART 0
  39:../lib/uart.c ****    void uart0_print_buffer(unsigned char *buffer, int size)
  40:../lib/uart.c **** // ############################################################################################
  41:../lib/uart.c **** {
 1190              	et_syscpreg
 1191              		.loc 4 23 0
 1192              		mov	r2, #0
 1193              		mvn	r3, #0
 1194 0684 E92D4030 		str	r2, [r3, #-4047]
 1195              		.loc 4 24 0
  42:../lib/uart.c **** 	unsigned char char_buffer = 0;
  43:../lib/uart.c **** 	while(size > 0){
 1196              		sp!, {r0, r1, r2, r3, ip, pc}^
 1197 0688 E2514000 	.LFE32:
 1199 068c E1A05000 		.section	.rodata.str1.4,"aMS",%progbits,1
 1200              		.align	2
 1201 0690 D8BD8030 	.LC0:
 1202              		.ascii	"\015\012\015\012STORM SoC Basic Configuration\015\012"
 1203              		.ascii	"\000"
  44:../lib/uart.c **** 		char_buffer = *buffer++;
  45:../lib/uart.c **** 		io_uart0_send_byte((int)char_buffer);
 1204              	2
 1205 0694 E4D50001 	.LC1:
 1206              		.ascii	"Demo program\015\012\015\012\000"
 1207 0698 EBFFFFFE 		.align	2
 1208              	.LC2:
 1209              		.ascii	"Press any key!\015\012\000"
 1210 069c E2544001 		.text
 1211 06a0 1AFFFFFB 		.align	2
 1212 06a4 E8BD8030 		.global	main
 1214              	main:
 1215              	.LFB33:
 1216              		.loc 4 29 0
 1217              		@ args = 0, pretend = 0, frame = 0
 1218              		@ frame_needed = 0, uses_anonymous_args = 0
 1219              		.loc 4 34 0
 1220              		mov	r2, #49807360
   1:main.c        **** #include "../lib/storm_core.h"
   2:main.c        **** #include "../lib/storm_soc_basic.h"
   3:main.c        **** #include "../lib/io_driver.c"
   4:main.c        **** #include "../lib/utilities.c"
   5:main.c        **** #include "../lib/uart.c"
   6:main.c        **** 
   7:main.c        **** // +------------------------------+
   8:main.c        **** // |    Simple Program Demo       |
   9:main.c        **** // +------------------------------+
  10:main.c        **** 
  11:main.c        **** // This program uses the system timer to toggle LED(0) of the System IO
  12:main.c        **** // port every second. Also a demo output to the terminal is made.
  13:main.c        **** // Received UART transmission are echoed.
  14:main.c        **** 
  15:main.c        **** 
  16:main.c        **** /* ---- IRQ: Timer ISR ---- */
  17:main.c        **** void __attribute__ ((interrupt("IRQ"))) timer0_isr(void)
  18:main.c        **** {
 1221              	512
 1222              		.loc 4 33 0
 1223              		mvn	r1, #61440
 1224              		.loc 4 34 0
 1225 06a8 E24EE004 		add	r2, r2, #128
 1226 06ac E92D500F 		.loc 4 33 0
 1227              		mov	r3, #0
  19:main.c        **** 	// toggle status led
  20:main.c        **** 	set_syscpreg((get_syscpreg(SYS_IO) ^ 0x01), SYS_IO);
 1228              	, [r1, #-4063]
 1229 06b0 E3A0000D 		.loc 4 34 0
 1230 06b4 EBFFFFFE 		str	r2, [r1, #-4059]
 1231 06b8 E3A0100D 		.loc 4 36 0
 1232 06bc E2200001 		ldr	r2, .L219
 1233 06c0 EBFFFFFE 		mvn	r0, #0
  21:main.c        **** 
  22:main.c        **** 	// acknowledge interrupt
  23:main.c        **** 	VICVectAddr = 0;
 1234              	4 35 0
 1235 06c4 E3A02000 		add	r3, r3, #7
 1236 06c8 E3E03000 		str	r3, [r1, #-4055]
 1237 06cc E5032FCF 		.loc 4 36 0
  24:main.c        **** }
 1238              		r2, [r0, #-4031]
 1239 06d0 E8FD900F 		.loc 4 37 0
 1240              		add	r3, r3, #25
 1241              		.loc 4 38 0
 1242              		mov	r2, #1
 1243              		.loc 4 37 0
 1244              		str	r3, [r0, #-3967]
 1245 0000 0D0A0D0A 		.loc 4 29 0
 1245      53544F52 
 1245      4D20536F 
 1245      43204261 
 1245      73696320 
 1246 0023 00       		str	lr, [sp, #-4]!
 1247              	.LCFI8:
 1248              		.loc 4 38 0
 1249 0024 44656D6F 		str	r2, [r0, #-4079]
 1249      2070726F 
 1249      6772616D 
 1249      0D0A0D0A 
 1249      00
 1250 0035 000000   		.loc 4 39 0
 1251              		bl	io_enable_xint
 1252 0038 50726573 		.loc 4 42 0
 1252      7320616E 
 1252      79206B65 
 1252      79210D0A 
 1252      00
 1253 0049 000000   		ldr	r0, .L219+4
 1254              		bl	uart0_printf
 1255              		.loc 4 43 0
 1256              		ldr	r0, .L219+8
 1257              		bl	uart0_printf
 1258              		.loc 4 45 0
  25:main.c        **** 
  26:main.c        **** 
  27:main.c        **** /* ---- Main function ---- */
  28:main.c        **** int main(void)
  29:main.c        **** {
 1259              		uart0_printf
 1260              	.L217:
 1261              		.loc 4 49 0
  30:main.c        **** 	int temp;
  31:main.c        **** 
  32:main.c        **** 	// timer init
  33:main.c        **** 	STME0_CNT  = 0;
  34:main.c        **** 	STME0_VAL  = 50000000; // threshold value for 1s ticks
 1262              		io_uart0_read_byte
 1263 06d4 E3A027BE 		.loc 4 50 0
 1264 06d8 E2822A2F 		cmn	r0, #1
 1265              		beq	.L217
 1266 06dc E3E01A0F 	.L218:
 1267              		.loc 4 51 0
 1268 06e0 E2822080 		bl	io_uart0_send_byte
 1269              		.loc 4 49 0
 1270 06e4 E3A03000 		bl	io_uart0_read_byte
 1271 06e8 E5013FDF 		.loc 4 50 0
 1272              		cmn	r0, #1
 1273 06ec E5012FDB 		bne	.L218
  35:main.c        **** 	STME0_CONF = (1<<2) | (1<<1) | (1<<0); // interrupt en, auto reset, timer enable
  36:main.c        **** 	VICVectAddr0 = (unsigned long)timer0_isr;
 1274              	20:
 1275 06f0 E59F205C 		.align	2
 1276 06f4 E3E00000 	.L219:
 1277              		.word	timer0_isr
 1278 06f8 E2833007 		.word	.LC0
 1279 06fc E5013FD7 		.word	.LC1
 1280              		.word	.LC2
 1281 0700 E5002FBF 	.LFE33:
  37:main.c        **** 	VICVectCntl0 = (1<<5) | 0; // enable and channel select = 0 (timer0)
 1282              	ain, .-main
 1283 0704 E2833019 		.section	.debug_frame,"",%progbits
  38:main.c        **** 	VICIntEnable = (1<<0); // enable channel 0 (timer0)
 1284              	frame0:
 1285 0708 E3A02001 		.4byte	.LECIE0-.LSCIE0
 1286              	.LSCIE0:
 1287 070c E5003F7F 		.4byte	0xffffffff
 1288              		.byte	0x1
 1289 0710 E52DE004 		.ascii	"\000"
 1290              		.uleb128 0x1
 1291              		.sleb128 -4
 1292 0714 E5002FEF 		.byte	0xe
  39:main.c        **** 	io_enable_xint(); // enable IRQ
 1293              	c
 1294 0718 EBFFFFFE 		.uleb128 0xd
  40:main.c        **** 
  41:main.c        **** 	// Intro
  42:main.c        **** 	uart0_printf("\r\n\r\nSTORM SoC Basic Configuration\r\n");
 1295              	uleb128 0x0
 1296 071c E59F0034 		.align	2
 1297 0720 EBFFFFFE 	.LECIE0:
  43:main.c        **** 	uart0_printf("Demo program\r\n\r\n");
 1298              	FDE0:
 1299 0724 E59F0030 		.4byte	.LEFDE0-.LASFDE0
 1300 0728 EBFFFFFE 	.LASFDE0:
  44:main.c        **** 
  45:main.c        **** 	uart0_printf("Press any key!\r\n");
 1301              	byte	.Lframe0
 1302 072c E59F002C 		.4byte	.LFB2
 1303 0730 EBFFFFFE 		.4byte	.LFE2-.LFB2
 1304              		.align	2
  46:main.c        **** 
  47:main.c        **** 	// echo received char
  48:main.c        **** 	while(1){
  49:main.c        **** 		temp = io_uart0_read_byte();
 1305              	DE0:
 1306 0734 EBFFFFFE 	.LSFDE2:
  50:main.c        **** 		if (temp != -1)
 1307              	4byte	.LEFDE2-.LASFDE2
 1308 0738 E3700001 	.LASFDE2:
 1309 073c 0AFFFFFC 		.4byte	.Lframe0
 1310              		.4byte	.LFB3
  51:main.c        **** 			io_uart0_send_byte(temp);
 1311              	yte	.LFE3-.LFB3
 1312 0740 EBFFFFFE 		.align	2
 1313              	.LEFDE2:
 1314 0744 EBFFFFFE 	.LSFDE4:
 1315              		.4byte	.LEFDE4-.LASFDE4
 1316 0748 E3700001 	.LASFDE4:
 1317 074c 1AFFFFFB 		.4byte	.Lframe0
 1318 0750 EAFFFFF7 		.4byte	.LFB4
 1319              		.4byte	.LFE4-.LFB4
 1320              		.align	2
 1321              	.LEFDE4:
 1322 0754 00000000 	.LSFDE6:
 1323 0758 00000000 		.4byte	.LEFDE6-.LASFDE6
 1324 075c 00000024 	.LASFDE6:
 1325 0760 00000038 		.4byte	.Lframe0
 1326              		.4byte	.LFB5
 1327              		.4byte	.LFE5-.LFB5
 1670              		.byte	0x53